---
triple:          'arm64-apple-darwin'
binary-path:     './bin/compiler'
relocations:
  - { offset: 0x26, size: 0x8, addend: 0x0, symName: __Z5yylexv, symObjAddr: 0x0, symBinAddr: 0x1000018D8, symSize: 0x820 }
  - { offset: 0x40, size: 0x8, addend: 0x0, symName: _yyleng, symObjAddr: 0x6BB0, symBinAddr: 0x100010008, symSize: 0x0 }
  - { offset: 0x7E, size: 0x8, addend: 0x0, symName: _yyin, symObjAddr: 0x6BB8, symBinAddr: 0x100010010, symSize: 0x0 }
  - { offset: 0x2A0, size: 0x8, addend: 0x0, symName: _yyout, symObjAddr: 0x6BC0, symBinAddr: 0x100010018, symSize: 0x0 }
  - { offset: 0x2B6, size: 0x8, addend: 0x0, symName: _yylineno, symObjAddr: 0x22AC, symBinAddr: 0x100010000, symSize: 0x0 }
  - { offset: 0x2CC, size: 0x8, addend: 0x0, symName: _yy_flex_debug, symObjAddr: 0x6BC8, symBinAddr: 0x100010020, symSize: 0x0 }
  - { offset: 0x2E2, size: 0x8, addend: 0x0, symName: _yytext, symObjAddr: 0x6BD0, symBinAddr: 0x100010028, symSize: 0x0 }
  - { offset: 0x2F7, size: 0x8, addend: 0x0, symName: _Lineno, symObjAddr: 0x6BD8, symBinAddr: 0x100010030, symSize: 0x0 }
  - { offset: 0x30C, size: 0x8, addend: 0x0, symName: _wflag, symObjAddr: 0x6BDC, symBinAddr: 0x100010034, symSize: 0x0 }
  - { offset: 0x322, size: 0x8, addend: 0x0, symName: __ZL7yy_init, symObjAddr: 0x6BE0, symBinAddr: 0x100010090, symSize: 0x0 }
  - { offset: 0x33C, size: 0x8, addend: 0x0, symName: __ZL8yy_start, symObjAddr: 0x6BE4, symBinAddr: 0x100010094, symSize: 0x0 }
  - { offset: 0x355, size: 0x8, addend: 0x0, symName: __ZL15yy_buffer_stack, symObjAddr: 0x6BE8, symBinAddr: 0x100010098, symSize: 0x0 }
  - { offset: 0x41D, size: 0x8, addend: 0x0, symName: __ZL19yy_buffer_stack_top, symObjAddr: 0x6BF0, symBinAddr: 0x1000100A0, symSize: 0x0 }
  - { offset: 0x437, size: 0x8, addend: 0x0, symName: __ZL10yy_c_buf_p, symObjAddr: 0x6BF8, symBinAddr: 0x1000100A8, symSize: 0x0 }
  - { offset: 0x451, size: 0x8, addend: 0x0, symName: __ZL12yy_hold_char, symObjAddr: 0x6C00, symBinAddr: 0x1000100B0, symSize: 0x0 }
  - { offset: 0x46B, size: 0x8, addend: 0x0, symName: __ZL5yy_ec, symObjAddr: 0x22B0, symBinAddr: 0x10000AA30, symSize: 0x0 }
  - { offset: 0x4AE, size: 0x8, addend: 0x0, symName: __ZL9yy_accept, symObjAddr: 0x23B0, symBinAddr: 0x10000AB30, symSize: 0x0 }
  - { offset: 0x4E4, size: 0x8, addend: 0x0, symName: __ZL23yy_last_accepting_state, symObjAddr: 0x6C04, symBinAddr: 0x1000100B4, symSize: 0x0 }
  - { offset: 0x50A, size: 0x8, addend: 0x0, symName: __ZL22yy_last_accepting_cpos, symObjAddr: 0x6C08, symBinAddr: 0x1000100B8, symSize: 0x0 }
  - { offset: 0x524, size: 0x8, addend: 0x0, symName: __ZL6yy_chk, symObjAddr: 0x246E, symBinAddr: 0x10000ABEE, symSize: 0x0 }
  - { offset: 0x54A, size: 0x8, addend: 0x0, symName: __ZL7yy_base, symObjAddr: 0x257A, symBinAddr: 0x10000ACFA, symSize: 0x0 }
  - { offset: 0x570, size: 0x8, addend: 0x0, symName: __ZL6yy_def, symObjAddr: 0x263A, symBinAddr: 0x10000ADBA, symSize: 0x0 }
  - { offset: 0x58A, size: 0x8, addend: 0x0, symName: __ZL7yy_meta, symObjAddr: 0x26FA, symBinAddr: 0x10000AE7A, symSize: 0x0 }
  - { offset: 0x5B0, size: 0x8, addend: 0x0, symName: __ZL6yy_nxt, symObjAddr: 0x271A, symBinAddr: 0x10000AE9A, symSize: 0x0 }
  - { offset: 0x5CA, size: 0x8, addend: 0x0, symName: __ZL10yy_n_chars, symObjAddr: 0x6C10, symBinAddr: 0x1000100C0, symSize: 0x0 }
  - { offset: 0x5E4, size: 0x8, addend: 0x0, symName: __ZL27yy_did_buffer_switch_on_eof, symObjAddr: 0x6C18, symBinAddr: 0x1000100C8, symSize: 0x0 }
  - { offset: 0x5FD, size: 0x8, addend: 0x0, symName: __ZL19yy_buffer_stack_max, symObjAddr: 0x6C20, symBinAddr: 0x1000100D0, symSize: 0x0 }
  - { offset: 0x60A, size: 0x8, addend: 0x0, symName: __Z5yylexv, symObjAddr: 0x0, symBinAddr: 0x1000018D8, symSize: 0x820 }
  - { offset: 0x6E4, size: 0x8, addend: 0x0, symName: __ZL21yyensure_buffer_stackv, symObjAddr: 0x8A4, symBinAddr: 0x10000217C, symSize: 0x14C }
  - { offset: 0x72B, size: 0x8, addend: 0x0, symName: __Z16yy_create_bufferP7__sFILEi, symObjAddr: 0x9F0, symBinAddr: 0x1000022C8, symSize: 0xB8 }
  - { offset: 0x777, size: 0x8, addend: 0x0, symName: __ZL20yy_load_buffer_statev, symObjAddr: 0xAA8, symBinAddr: 0x100002380, symSize: 0x6C }
  - { offset: 0x791, size: 0x8, addend: 0x0, symName: __ZL21yy_get_previous_statev, symObjAddr: 0xB14, symBinAddr: 0x1000023EC, symSize: 0x198 }
  - { offset: 0x7EB, size: 0x8, addend: 0x0, symName: __ZL16yy_try_NUL_transi, symObjAddr: 0xCAC, symBinAddr: 0x100002584, symSize: 0x158 }
  - { offset: 0x846, size: 0x8, addend: 0x0, symName: __ZL18yy_get_next_bufferv, symObjAddr: 0xE04, symBinAddr: 0x1000026DC, symSize: 0x7A4 }
  - { offset: 0x95F, size: 0x8, addend: 0x0, symName: __ZL14yy_fatal_errorPKc, symObjAddr: 0x15A8, symBinAddr: 0x100002E80, symSize: 0x3C }
  - { offset: 0x989, size: 0x8, addend: 0x0, symName: __Z9yyrestartP7__sFILE, symObjAddr: 0x15E4, symBinAddr: 0x100002EBC, symSize: 0xEC }
  - { offset: 0x9B3, size: 0x8, addend: 0x0, symName: __ZL14yy_init_bufferP15yy_buffer_stateP7__sFILE, symObjAddr: 0x16D0, symBinAddr: 0x100002FA8, symSize: 0x124 }
  - { offset: 0x9FB, size: 0x8, addend: 0x0, symName: __Z19yy_switch_to_bufferP15yy_buffer_state, symObjAddr: 0x17F4, symBinAddr: 0x1000030CC, symSize: 0x148 }
  - { offset: 0xA25, size: 0x8, addend: 0x0, symName: __Z7yyallocm, symObjAddr: 0x193C, symBinAddr: 0x100003214, symSize: 0x24 }
  - { offset: 0xA53, size: 0x8, addend: 0x0, symName: __Z16yy_delete_bufferP15yy_buffer_state, symObjAddr: 0x1960, symBinAddr: 0x100003238, symSize: 0xE4 }
  - { offset: 0xA7D, size: 0x8, addend: 0x0, symName: __Z6yyfreePv, symObjAddr: 0x1A44, symBinAddr: 0x10000331C, symSize: 0x24 }
  - { offset: 0xAA7, size: 0x8, addend: 0x0, symName: __Z15yy_flush_bufferP15yy_buffer_state, symObjAddr: 0x1A68, symBinAddr: 0x100003340, symSize: 0xE0 }
  - { offset: 0xAD1, size: 0x8, addend: 0x0, symName: __Z19yypush_buffer_stateP15yy_buffer_state, symObjAddr: 0x1B48, symBinAddr: 0x100003420, symSize: 0x16C }
  - { offset: 0xAFB, size: 0x8, addend: 0x0, symName: __Z18yypop_buffer_statev, symObjAddr: 0x1CB4, symBinAddr: 0x10000358C, symSize: 0x160 }
  - { offset: 0xB15, size: 0x8, addend: 0x0, symName: __Z14yy_scan_bufferPcm, symObjAddr: 0x1E14, symBinAddr: 0x1000036EC, symSize: 0x128 }
  - { offset: 0xB61, size: 0x8, addend: 0x0, symName: __Z14yy_scan_stringPKc, symObjAddr: 0x1F3C, symBinAddr: 0x100003814, symSize: 0x3C }
  - { offset: 0xB8F, size: 0x8, addend: 0x0, symName: __Z13yy_scan_bytesPKcm, symObjAddr: 0x1F78, symBinAddr: 0x100003850, symSize: 0x110 }
  - { offset: 0xC08, size: 0x8, addend: 0x0, symName: __Z12yyget_linenov, symObjAddr: 0x2088, symBinAddr: 0x100003960, symSize: 0xC }
  - { offset: 0xC26, size: 0x8, addend: 0x0, symName: __Z8yyget_inv, symObjAddr: 0x2094, symBinAddr: 0x10000396C, symSize: 0xC }
  - { offset: 0xC44, size: 0x8, addend: 0x0, symName: __Z9yyget_outv, symObjAddr: 0x20A0, symBinAddr: 0x100003978, symSize: 0xC }
  - { offset: 0xC62, size: 0x8, addend: 0x0, symName: __Z10yyget_lengv, symObjAddr: 0x20AC, symBinAddr: 0x100003984, symSize: 0xC }
  - { offset: 0xC80, size: 0x8, addend: 0x0, symName: __Z10yyget_textv, symObjAddr: 0x20B8, symBinAddr: 0x100003990, symSize: 0xC }
  - { offset: 0xC9E, size: 0x8, addend: 0x0, symName: __Z12yyset_linenoi, symObjAddr: 0x20C4, symBinAddr: 0x10000399C, symSize: 0x1C }
  - { offset: 0xCC8, size: 0x8, addend: 0x0, symName: __Z8yyset_inP7__sFILE, symObjAddr: 0x20E0, symBinAddr: 0x1000039B8, symSize: 0x1C }
  - { offset: 0xCF2, size: 0x8, addend: 0x0, symName: __Z9yyset_outP7__sFILE, symObjAddr: 0x20FC, symBinAddr: 0x1000039D4, symSize: 0x1C }
  - { offset: 0xD1C, size: 0x8, addend: 0x0, symName: __Z11yyget_debugv, symObjAddr: 0x2118, symBinAddr: 0x1000039F0, symSize: 0xC }
  - { offset: 0xD3A, size: 0x8, addend: 0x0, symName: __Z11yyset_debugi, symObjAddr: 0x2124, symBinAddr: 0x1000039FC, symSize: 0x1C }
  - { offset: 0xD64, size: 0x8, addend: 0x0, symName: __Z13yylex_destroyv, symObjAddr: 0x2140, symBinAddr: 0x100003A18, symSize: 0xF8 }
  - { offset: 0xD82, size: 0x8, addend: 0x0, symName: __ZL15yy_init_globalsv, symObjAddr: 0x2238, symBinAddr: 0x100003B10, symSize: 0x48 }
  - { offset: 0xDA0, size: 0x8, addend: 0x0, symName: __Z9yyreallocPvm, symObjAddr: 0x2280, symBinAddr: 0x100003B58, symSize: 0x2C }
  - { offset: 0xE1C, size: 0x8, addend: 0x0, symName: _symbol_table, symObjAddr: 0x46858, symBinAddr: 0x100010038, symSize: 0x0 }
  - { offset: 0x75C3, size: 0x8, addend: 0x0, symName: __ZNSt3__1eqB8ne180100ERKNS_14__map_iteratorINS_15__tree_iteratorINS_12__value_typeINS_12basic_stringIcNS_11char_traitsIcEENS_9allocatorIcEEEE11SymbolEntryEEPNS_11__tree_nodeISA_PvEElEEEESI_, symObjAddr: 0x3E8, symBinAddr: 0x100003F6C, symSize: 0x30 }
  - { offset: 0x7633, size: 0x8, addend: 0x0, symName: __ZNSt3__112__destroy_atB8ne180100INS_4pairIKNS_12basic_stringIcNS_11char_traitsIcEENS_9allocatorIcEEEE11SymbolEntryEELi0EEEvPT_, symObjAddr: 0x39C0, symBinAddr: 0x100007544, symSize: 0x24 }
  - { offset: 0x766A, size: 0x8, addend: 0x0, symName: __ZNSt3__130__libcpp_is_constant_evaluatedB8ne180100Ev, symObjAddr: 0x3AC4, symBinAddr: 0x100007648, symSize: 0xC }
  - { offset: 0x7687, size: 0x8, addend: 0x0, symName: __ZNSt3__119__libcpp_deallocateB8ne180100EPvmm, symObjAddr: 0x3AD0, symBinAddr: 0x100007654, symSize: 0x30 }
  - { offset: 0x76CF, size: 0x8, addend: 0x0, symName: __ZNSt3__127__do_deallocate_handle_sizeB8ne180100IJEEEvPvmDpT_, symObjAddr: 0x3B00, symBinAddr: 0x100007684, symSize: 0x28 }
  - { offset: 0x770D, size: 0x8, addend: 0x0, symName: __ZNSt3__124__libcpp_operator_deleteB8ne180100IJPvEEEvDpT_, symObjAddr: 0x3B28, symBinAddr: 0x1000076AC, symSize: 0x24 }
  - { offset: 0x7742, size: 0x8, addend: 0x0, symName: __ZNSt3__112__destroy_atB8ne180100INS_4pairIKNS_12basic_stringIcNS_11char_traitsIcEENS_9allocatorIcEEEE12_DATA_TYPES_EELi0EEEvPT_, symObjAddr: 0x40F4, symBinAddr: 0x100007C78, symSize: 0x24 }
  - { offset: 0x7779, size: 0x8, addend: 0x0, symName: __ZNSt3__1neB8ne180100ERKNS_15__tree_iteratorINS_12__value_typeINS_12basic_stringIcNS_11char_traitsIcEENS_9allocatorIcEEEE11SymbolEntryEEPNS_11__tree_nodeIS9_PvEElEESG_, symObjAddr: 0x4414, symBinAddr: 0x100007F98, symSize: 0x34 }
  - { offset: 0x77B6, size: 0x8, addend: 0x0, symName: __ZNSt3__1ltB8ne180100IcNS_11char_traitsIcEENS_9allocatorIcEEEEbRKNS_12basic_stringIT_T0_T1_EESB_, symObjAddr: 0x45E0, symBinAddr: 0x100008164, symSize: 0x38 }
  - { offset: 0x780E, size: 0x8, addend: 0x0, symName: __ZNSt3__13minB8ne180100ImEERKT_S3_S3_, symObjAddr: 0x4904, symBinAddr: 0x100008488, symSize: 0x2C }
  - { offset: 0x7851, size: 0x8, addend: 0x0, symName: __ZNSt3__112__to_addressB8ne180100IKcEEPT_S3_, symObjAddr: 0x4A58, symBinAddr: 0x1000085DC, symSize: 0x14 }
  - { offset: 0x78B9, size: 0x8, addend: 0x0, symName: __ZNSt3__13minB8ne180100ImNS_6__lessIvvEEEERKT_S5_S5_T0_, symObjAddr: 0x4B24, symBinAddr: 0x1000086A8, symSize: 0x54 }
  - { offset: 0x7958, size: 0x8, addend: 0x0, symName: __ZNSt3__1eqB8ne180100ERKNS_15__tree_iteratorINS_12__value_typeINS_12basic_stringIcNS_11char_traitsIcEENS_9allocatorIcEEEE11SymbolEntryEEPNS_11__tree_nodeIS9_PvEElEESG_, symObjAddr: 0x4C34, symBinAddr: 0x1000087B8, symSize: 0x30 }
  - { offset: 0x7995, size: 0x8, addend: 0x0, symName: __ZNSt3__118__constexpr_strlenB8ne180100EPKc, symObjAddr: 0x4E6C, symBinAddr: 0x1000089F0, symSize: 0x24 }
  - { offset: 0x79DF, size: 0x8, addend: 0x0, symName: __ZNSt3__117__libcpp_allocateB8ne180100Emm, symObjAddr: 0x550C, symBinAddr: 0x100009090, symSize: 0x28 }
  - { offset: 0x7A1C, size: 0x8, addend: 0x0, symName: __ZNSt3__121__libcpp_operator_newB8ne180100IJmEEEPvDpT_, symObjAddr: 0x5554, symBinAddr: 0x1000090D8, symSize: 0x24 }
  - { offset: 0x7A55, size: 0x8, addend: 0x0, symName: __ZNSt3__127__tree_balance_after_insertB8ne180100IPNS_16__tree_node_baseIPvEEEEvT_S5_, symObjAddr: 0x578C, symBinAddr: 0x100009310, symSize: 0x340 }
  - { offset: 0x7AC9, size: 0x8, addend: 0x0, symName: __ZNSt3__120__tree_is_left_childB8ne180100IPNS_16__tree_node_baseIPvEEEEbT_, symObjAddr: 0x5B0C, symBinAddr: 0x100009690, symSize: 0x2C }
  - { offset: 0x7AFE, size: 0x8, addend: 0x0, symName: __ZNSt3__118__tree_left_rotateB8ne180100IPNS_16__tree_node_baseIPvEEEEvT_, symObjAddr: 0x5B38, symBinAddr: 0x1000096BC, symSize: 0xEC }
  - { offset: 0x7B3D, size: 0x8, addend: 0x0, symName: __ZNSt3__119__tree_right_rotateB8ne180100IPNS_16__tree_node_baseIPvEEEEvT_, symObjAddr: 0x5C24, symBinAddr: 0x1000097A8, symSize: 0xCC }
  - { offset: 0x7B7F, size: 0x8, addend: 0x0, symName: __ZNSt3__112__destroy_atB8ne180100I11SymbolEntryLi0EEEvPT_, symObjAddr: 0x5F5C, symBinAddr: 0x100009AE0, symSize: 0x10 }
  - { offset: 0x7BB6, size: 0x8, addend: 0x0, symName: __ZNSt3__112__destroy_atB8ne180100IKNS_12basic_stringIcNS_11char_traitsIcEENS_9allocatorIcEEEELi0EEEvPT_, symObjAddr: 0x5F6C, symBinAddr: 0x100009AF0, symSize: 0x24 }
  - { offset: 0x7C0B, size: 0x8, addend: 0x0, symName: __ZNSt3__112__destroy_atB8ne180100I12_DATA_TYPES_Li0EEEvPT_, symObjAddr: 0x6B60, symBinAddr: 0x10000A6E4, symSize: 0x10 }
  - { offset: 0x8794, size: 0x8, addend: 0x0, symName: __ZSt28__throw_bad_array_new_lengthB8ne180100v, symObjAddr: 0x54D8, symBinAddr: 0x10000905C, symSize: 0x34 }
  - { offset: 0x8D79, size: 0x8, addend: 0x0, symName: _variable_types, symObjAddr: 0x46870, symBinAddr: 0x100010050, symSize: 0x0 }
  - { offset: 0x906D, size: 0x8, addend: 0x0, symName: _var_type, symObjAddr: 0x46888, symBinAddr: 0x100010068, symSize: 0x0 }
  - { offset: 0x9082, size: 0x8, addend: 0x0, symName: _tempNode, symObjAddr: 0x46890, symBinAddr: 0x100010070, symSize: 0x0 }
  - { offset: 0x915C, size: 0x8, addend: 0x0, symName: _yychar, symObjAddr: 0x46898, symBinAddr: 0x100010078, symSize: 0x0 }
  - { offset: 0x9172, size: 0x8, addend: 0x0, symName: _yylval, symObjAddr: 0x468A0, symBinAddr: 0x100010080, symSize: 0x0 }
  - { offset: 0x91C1, size: 0x8, addend: 0x0, symName: _yynerrs, symObjAddr: 0x468A8, symBinAddr: 0x100010088, symSize: 0x0 }
  - { offset: 0x91D7, size: 0x8, addend: 0x0, symName: __ZL6yypact, symObjAddr: 0x72EE, symBinAddr: 0x10000AFA6, symSize: 0x0 }
  - { offset: 0x9214, size: 0x8, addend: 0x0, symName: __ZL11yytranslate, symObjAddr: 0x73B8, symBinAddr: 0x10000B070, symSize: 0x0 }
  - { offset: 0x924B, size: 0x8, addend: 0x0, symName: __ZL7yycheck, symObjAddr: 0x74D9, symBinAddr: 0x10000B191, symSize: 0x0 }
  - { offset: 0x9288, size: 0x8, addend: 0x0, symName: __ZL7yytable, symObjAddr: 0x7589, symBinAddr: 0x10000B241, symSize: 0x0 }
  - { offset: 0x92A2, size: 0x8, addend: 0x0, symName: __ZL8yydefact, symObjAddr: 0x7639, symBinAddr: 0x10000B2F1, symSize: 0x0 }
  - { offset: 0x92C8, size: 0x8, addend: 0x0, symName: __ZL4yyr2, symObjAddr: 0x769E, symBinAddr: 0x10000B356, symSize: 0x0 }
  - { offset: 0x92EE, size: 0x8, addend: 0x0, symName: __ZL4yyr1, symObjAddr: 0x76CD, symBinAddr: 0x10000B385, symSize: 0x0 }
  - { offset: 0x9308, size: 0x8, addend: 0x0, symName: __ZL7yypgoto, symObjAddr: 0x76FC, symBinAddr: 0x10000B3B4, symSize: 0x0 }
  - { offset: 0x932E, size: 0x8, addend: 0x0, symName: __ZL9yydefgoto, symObjAddr: 0x770D, symBinAddr: 0x10000B3C5, symSize: 0x0 }
  - { offset: 0x9348, size: 0x8, addend: 0x0, symName: __ZL6yystos, symObjAddr: 0x771E, symBinAddr: 0x10000B3D6, symSize: 0x0 }
  - { offset: 0x937F, size: 0x8, addend: 0x0, symName: __ZNSt3__13mapINS_12basic_stringIcNS_11char_traitsIcEENS_9allocatorIcEEEE11SymbolEntryNS_4lessIS6_EENS4_INS_4pairIKS6_S7_EEEEEC1B8ne180100Ev, symObjAddr: 0x0, symBinAddr: 0x100003B84, symSize: 0x2C }
  - { offset: 0x93A7, size: 0x8, addend: 0x0, symName: __ZNSt3__13mapINS_12basic_stringIcNS_11char_traitsIcEENS_9allocatorIcEEEE11SymbolEntryNS_4lessIS6_EENS4_INS_4pairIKS6_S7_EEEEED1B8ne180100Ev, symObjAddr: 0x2C, symBinAddr: 0x100003BB0, symSize: 0x2C }
  - { offset: 0x93CF, size: 0x8, addend: 0x0, symName: __ZNSt3__13mapINS_12basic_stringIcNS_11char_traitsIcEENS_9allocatorIcEEEE12_DATA_TYPES_NS_4lessIS6_EENS4_INS_4pairIKS6_S7_EEEEEC1B8ne180100Ev, symObjAddr: 0x58, symBinAddr: 0x100003BDC, symSize: 0x2C }
  - { offset: 0x93F7, size: 0x8, addend: 0x0, symName: __ZNSt3__13mapINS_12basic_stringIcNS_11char_traitsIcEENS_9allocatorIcEEEE12_DATA_TYPES_NS_4lessIS6_EENS4_INS_4pairIKS6_S7_EEEEED1B8ne180100Ev, symObjAddr: 0x84, symBinAddr: 0x100003C08, symSize: 0x2C }
  - { offset: 0x941F, size: 0x8, addend: 0x0, symName: __Z18get_variable_valuePcii, symObjAddr: 0xB0, symBinAddr: 0x100003C34, symSize: 0x338 }
  - { offset: 0x9467, size: 0x8, addend: 0x0, symName: __ZNSt3__13mapINS_12basic_stringIcNS_11char_traitsIcEENS_9allocatorIcEEEE11SymbolEntryNS_4lessIS6_EENS4_INS_4pairIKS6_S7_EEEEE4findB8ne180100ERSB_, symObjAddr: 0x418, symBinAddr: 0x100003F9C, symSize: 0x40 }
  - { offset: 0x949F, size: 0x8, addend: 0x0, symName: __ZNSt3__112basic_stringIcNS_11char_traitsIcEENS_9allocatorIcEEEC1B8ne180100ILi0EEEPKc, symObjAddr: 0x458, symBinAddr: 0x100003FDC, symSize: 0x34 }
  - { offset: 0x94DC, size: 0x8, addend: 0x0, symName: __ZNSt3__13mapINS_12basic_stringIcNS_11char_traitsIcEENS_9allocatorIcEEEE11SymbolEntryNS_4lessIS6_EENS4_INS_4pairIKS6_S7_EEEEE3endB8ne180100Ev, symObjAddr: 0x48C, symBinAddr: 0x100004010, symSize: 0x38 }
  - { offset: 0x9500, size: 0x8, addend: 0x0, symName: __ZNSt3__13mapINS_12basic_stringIcNS_11char_traitsIcEENS_9allocatorIcEEEE11SymbolEntryNS_4lessIS6_EENS4_INS_4pairIKS6_S7_EEEEEixERSB_, symObjAddr: 0x4D4, symBinAddr: 0x100004058, symSize: 0xC8 }
  - { offset: 0x9577, size: 0x8, addend: 0x0, symName: __Z15createStatementv, symObjAddr: 0x59C, symBinAddr: 0x100004120, symSize: 0x64 }
  - { offset: 0x95A3, size: 0x8, addend: 0x0, symName: __Z22createFunctionArgumentv, symObjAddr: 0x600, symBinAddr: 0x100004184, symSize: 0x64 }
  - { offset: 0x95CF, size: 0x8, addend: 0x0, symName: __Z16createLdecl_listv, symObjAddr: 0x664, symBinAddr: 0x1000041E8, symSize: 0x64 }
  - { offset: 0x95FB, size: 0x8, addend: 0x0, symName: __Z8evaluateP4node, symObjAddr: 0x6C8, symBinAddr: 0x10000424C, symSize: 0x40 }
  - { offset: 0x9627, size: 0x8, addend: 0x0, symName: __Z10evaluateOpPcii, symObjAddr: 0x708, symBinAddr: 0x10000428C, symSize: 0x2EC }
  - { offset: 0x966F, size: 0x8, addend: 0x0, symName: __Z13evaluate_exprP4node, symObjAddr: 0x9F4, symBinAddr: 0x100004578, symSize: 0x150 }
  - { offset: 0x969B, size: 0x8, addend: 0x0, symName: __Z8createOpPcP4nodeS1_, symObjAddr: 0xB44, symBinAddr: 0x1000046C8, symSize: 0x7C }
  - { offset: 0x96F1, size: 0x8, addend: 0x0, symName: __Z9createNumi, symObjAddr: 0xBC0, symBinAddr: 0x100004744, symSize: 0x6C }
  - { offset: 0x972B, size: 0x8, addend: 0x0, symName: __Z10createDeclv, symObjAddr: 0xC2C, symBinAddr: 0x1000047B0, symSize: 0x64 }
  - { offset: 0x9757, size: 0x8, addend: 0x0, symName: __Z9createVarPc, symObjAddr: 0xC90, symBinAddr: 0x100004814, symSize: 0x60 }
  - { offset: 0x9791, size: 0x8, addend: 0x0, symName: __Z13createKeywordPci, symObjAddr: 0xCF0, symBinAddr: 0x100004874, symSize: 0x6C }
  - { offset: 0x97D9, size: 0x8, addend: 0x0, symName: __Z10createFuncPc, symObjAddr: 0xD5C, symBinAddr: 0x1000048E0, symSize: 0x64 }
  - { offset: 0x9813, size: 0x8, addend: 0x0, symName: __Z12createAssignP4nodeS0_, symObjAddr: 0xDC0, symBinAddr: 0x100004944, symSize: 0xB0 }
  - { offset: 0x985B, size: 0x8, addend: 0x0, symName: __Z11createBreakv, symObjAddr: 0xE70, symBinAddr: 0x1000049F4, symSize: 0x54 }
  - { offset: 0x9887, size: 0x8, addend: 0x0, symName: __Z14createContinuev, symObjAddr: 0xEC4, symBinAddr: 0x100004A48, symSize: 0x54 }
  - { offset: 0x98B5, size: 0x8, addend: 0x0, symName: __Z13createIfStmntv, symObjAddr: 0xF18, symBinAddr: 0x100004A9C, symSize: 0x5C }
  - { offset: 0x98E3, size: 0x8, addend: 0x0, symName: __Z14createForStmntv, symObjAddr: 0xF74, symBinAddr: 0x100004AF8, symSize: 0x5C }
  - { offset: 0x9911, size: 0x8, addend: 0x0, symName: __Z15createStmntListv, symObjAddr: 0xFD0, symBinAddr: 0x100004B54, symSize: 0x5C }
  - { offset: 0x993F, size: 0x8, addend: 0x0, symName: __Z9createTopv, symObjAddr: 0x102C, symBinAddr: 0x100004BB0, symSize: 0x5C }
  - { offset: 0x996D, size: 0x8, addend: 0x0, symName: __Z13pushChildNodeP4nodeS0_, symObjAddr: 0x1088, symBinAddr: 0x100004C0C, symSize: 0xA4 }
  - { offset: 0x99A6, size: 0x8, addend: 0x0, symName: __Z12pushNextNodeP4nodeS0_, symObjAddr: 0x112C, symBinAddr: 0x100004CB0, symSize: 0x54 }
  - { offset: 0x99DF, size: 0x8, addend: 0x0, symName: __Z9printNodeP4node, symObjAddr: 0x1180, symBinAddr: 0x100004D04, symSize: 0x134 }
  - { offset: 0x9A07, size: 0x8, addend: 0x0, symName: __Z16print_expressionP4node, symObjAddr: 0x12CC, symBinAddr: 0x100004E50, symSize: 0x78 }
  - { offset: 0x9A2F, size: 0x8, addend: 0x0, symName: __Z10print_stmtP4node, symObjAddr: 0x1344, symBinAddr: 0x100004EC8, symSize: 0x2F8 }
  - { offset: 0x9A73, size: 0x8, addend: 0x0, symName: __Z15print_stmt_listP4node, symObjAddr: 0x163C, symBinAddr: 0x1000051C0, symSize: 0xDC }
  - { offset: 0x9A9B, size: 0x8, addend: 0x0, symName: __Z14print_Lid_listP4node, symObjAddr: 0x1718, symBinAddr: 0x10000529C, symSize: 0x8C }
  - { offset: 0x9AC3, size: 0x8, addend: 0x0, symName: __Z16print_Ldecl_listP4node, symObjAddr: 0x17A4, symBinAddr: 0x100005328, symSize: 0x88 }
  - { offset: 0x9AEB, size: 0x8, addend: 0x0, symName: __Z10print_DeclP4node, symObjAddr: 0x182C, symBinAddr: 0x1000053B0, symSize: 0xB4 }
  - { offset: 0x9B13, size: 0x8, addend: 0x0, symName: __Z10print_treeP4node, symObjAddr: 0x18E0, symBinAddr: 0x100005464, symSize: 0xB4 }
  - { offset: 0x9B3B, size: 0x8, addend: 0x0, symName: __Z10update_varPciii, symObjAddr: 0x1994, symBinAddr: 0x100005518, symSize: 0x118 }
  - { offset: 0x9B8D, size: 0x8, addend: 0x0, symName: __Z12execute_stmtP4node, symObjAddr: 0x1AAC, symBinAddr: 0x100005630, symSize: 0x334 }
  - { offset: 0x9C0D, size: 0x8, addend: 0x0, symName: __Z17execute_stmt_listP4node, symObjAddr: 0x1DE0, symBinAddr: 0x100005964, symSize: 0x11C }
  - { offset: 0x9C55, size: 0x8, addend: 0x0, symName: __Z10declareVarP4node12_DATA_TYPES_, symObjAddr: 0x1EFC, symBinAddr: 0x100005A80, symSize: 0x20C }
  - { offset: 0x9C99, size: 0x8, addend: 0x0, symName: __ZNSt3__13mapINS_12basic_stringIcNS_11char_traitsIcEENS_9allocatorIcEEEE12_DATA_TYPES_NS_4lessIS6_EENS4_INS_4pairIKS6_S7_EEEEEixERSB_, symObjAddr: 0x2108, symBinAddr: 0x100005C8C, symSize: 0xC8 }
  - { offset: 0x9D10, size: 0x8, addend: 0x0, symName: __Z18execute_Ldecl_listP4node, symObjAddr: 0x21D0, symBinAddr: 0x100005D54, symSize: 0xB4 }
  - { offset: 0x9D46, size: 0x8, addend: 0x0, symName: __Z12execute_DeclP4node, symObjAddr: 0x2284, symBinAddr: 0x100005E08, symSize: 0x98 }
  - { offset: 0x9D6E, size: 0x8, addend: 0x0, symName: __Z7yyparsev, symObjAddr: 0x231C, symBinAddr: 0x100005EA0, symSize: 0xF50 }
  - { offset: 0xA053, size: 0x8, addend: 0x0, symName: __Z7yyerrorPc, symObjAddr: 0x3320, symBinAddr: 0x100006EA4, symSize: 0x40 }
  - { offset: 0xA07B, size: 0x8, addend: 0x0, symName: __ZL10yydestructPKciP7YYSTYPE, symObjAddr: 0x3360, symBinAddr: 0x100006EE4, symSize: 0x40 }
  - { offset: 0xA0C3, size: 0x8, addend: 0x0, symName: _main, symObjAddr: 0x33A0, symBinAddr: 0x100006F24, symSize: 0x20 }
  - { offset: 0xA0DC, size: 0x8, addend: 0x0, symName: __ZNSt3__13mapINS_12basic_stringIcNS_11char_traitsIcEENS_9allocatorIcEEEE11SymbolEntryNS_4lessIS6_EENS4_INS_4pairIKS6_S7_EEEEEC2B8ne180100Ev, symObjAddr: 0x33C0, symBinAddr: 0x100006F44, symSize: 0x40 }
  - { offset: 0xA104, size: 0x8, addend: 0x0, symName: __ZNSt3__119__map_value_compareINS_12basic_stringIcNS_11char_traitsIcEENS_9allocatorIcEEEENS_12__value_typeIS6_11SymbolEntryEENS_4lessIS6_EELb1EEC1B8ne180100ESB_, symObjAddr: 0x3400, symBinAddr: 0x100006F84, symSize: 0x2C }
  - { offset: 0xA13B, size: 0x8, addend: 0x0, symName: __ZNSt3__16__treeINS_12__value_typeINS_12basic_stringIcNS_11char_traitsIcEENS_9allocatorIcEEEE11SymbolEntryEENS_19__map_value_compareIS7_S9_NS_4lessIS7_EELb1EEENS5_IS9_EEEC1ERKSD_, symObjAddr: 0x342C, symBinAddr: 0x100006FB0, symSize: 0x34 }
  - { offset: 0xA174, size: 0x8, addend: 0x0, symName: __ZNSt3__119__map_value_compareINS_12basic_stringIcNS_11char_traitsIcEENS_9allocatorIcEEEENS_12__value_typeIS6_11SymbolEntryEENS_4lessIS6_EELb1EEC2B8ne180100ESB_, symObjAddr: 0x3460, symBinAddr: 0x100006FE4, symSize: 0x14 }
  - { offset: 0xA1AB, size: 0x8, addend: 0x0, symName: __ZNSt3__16__treeINS_12__value_typeINS_12basic_stringIcNS_11char_traitsIcEENS_9allocatorIcEEEE11SymbolEntryEENS_19__map_value_compareIS7_S9_NS_4lessIS7_EELb1EEENS5_IS9_EEEC2ERKSD_, symObjAddr: 0x3474, symBinAddr: 0x100006FF8, symSize: 0x70 }
  - { offset: 0xA1E4, size: 0x8, addend: 0x0, symName: __ZNSt3__117__compressed_pairINS_15__tree_end_nodeIPNS_16__tree_node_baseIPvEEEENS_9allocatorINS_11__tree_nodeINS_12__value_typeINS_12basic_stringIcNS_11char_traitsIcEENS7_IcEEEE11SymbolEntryEES3_EEEEEC1B8ne180100ILb1EvEEv, symObjAddr: 0x34E4, symBinAddr: 0x100007068, symSize: 0x2C }
  - { offset: 0xA21C, size: 0x8, addend: 0x0, symName: __ZNSt3__117__compressed_pairImNS_19__map_value_compareINS_12basic_stringIcNS_11char_traitsIcEENS_9allocatorIcEEEENS_12__value_typeIS7_11SymbolEntryEENS_4lessIS7_EELb1EEEEC1B8ne180100IiRKSD_EEOT_OT0_, symObjAddr: 0x3510, symBinAddr: 0x100007094, symSize: 0x3C }
  - { offset: 0xA272, size: 0x8, addend: 0x0, symName: __ZNSt3__16__treeINS_12__value_typeINS_12basic_stringIcNS_11char_traitsIcEENS_9allocatorIcEEEE11SymbolEntryEENS_19__map_value_compareIS7_S9_NS_4lessIS7_EELb1EEENS5_IS9_EEE10__end_nodeB8ne180100Ev, symObjAddr: 0x354C, symBinAddr: 0x1000070D0, symSize: 0x2C }
  - { offset: 0xA296, size: 0x8, addend: 0x0, symName: __ZNSt3__16__treeINS_12__value_typeINS_12basic_stringIcNS_11char_traitsIcEENS_9allocatorIcEEEE11SymbolEntryEENS_19__map_value_compareIS7_S9_NS_4lessIS7_EELb1EEENS5_IS9_EEE12__begin_nodeB8ne180100Ev, symObjAddr: 0x3578, symBinAddr: 0x1000070FC, symSize: 0x14 }
  - { offset: 0xA2BA, size: 0x8, addend: 0x0, symName: __ZNSt3__117__compressed_pairINS_15__tree_end_nodeIPNS_16__tree_node_baseIPvEEEENS_9allocatorINS_11__tree_nodeINS_12__value_typeINS_12basic_stringIcNS_11char_traitsIcEENS7_IcEEEE11SymbolEntryEES3_EEEEEC2B8ne180100ILb1EvEEv, symObjAddr: 0x358C, symBinAddr: 0x100007110, symSize: 0x34 }
  - { offset: 0xA2ED, size: 0x8, addend: 0x0, symName: __ZNSt3__122__compressed_pair_elemINS_15__tree_end_nodeIPNS_16__tree_node_baseIPvEEEELi0ELb0EEC2B8ne180100ENS_16__value_init_tagE, symObjAddr: 0x35C0, symBinAddr: 0x100007144, symSize: 0x2C }
  - { offset: 0xA31F, size: 0x8, addend: 0x0, symName: __ZNSt3__122__compressed_pair_elemINS_9allocatorINS_11__tree_nodeINS_12__value_typeINS_12basic_stringIcNS_11char_traitsIcEENS1_IcEEEE11SymbolEntryEEPvEEEELi1ELb1EEC2B8ne180100ENS_16__value_init_tagE, symObjAddr: 0x35EC, symBinAddr: 0x100007170, symSize: 0x2C }
  - { offset: 0xA351, size: 0x8, addend: 0x0, symName: __ZNSt3__115__tree_end_nodeIPNS_16__tree_node_baseIPvEEEC1B8ne180100Ev, symObjAddr: 0x3618, symBinAddr: 0x10000719C, symSize: 0x2C }
  - { offset: 0xA379, size: 0x8, addend: 0x0, symName: __ZNSt3__115__tree_end_nodeIPNS_16__tree_node_baseIPvEEEC2B8ne180100Ev, symObjAddr: 0x3644, symBinAddr: 0x1000071C8, symSize: 0x18 }
  - { offset: 0xA3A1, size: 0x8, addend: 0x0, symName: __ZNSt3__19allocatorINS_11__tree_nodeINS_12__value_typeINS_12basic_stringIcNS_11char_traitsIcEENS0_IcEEEE11SymbolEntryEEPvEEEC2B8ne180100Ev, symObjAddr: 0x365C, symBinAddr: 0x1000071E0, symSize: 0x2C }
  - { offset: 0xA3C9, size: 0x8, addend: 0x0, symName: __ZNSt3__116__non_trivial_ifILb1ENS_9allocatorINS_11__tree_nodeINS_12__value_typeINS_12basic_stringIcNS_11char_traitsIcEENS1_IcEEEE11SymbolEntryEEPvEEEEEC2B8ne180100Ev, symObjAddr: 0x3688, symBinAddr: 0x10000720C, symSize: 0x14 }
  - { offset: 0xA3F1, size: 0x8, addend: 0x0, symName: __ZNSt3__117__compressed_pairImNS_19__map_value_compareINS_12basic_stringIcNS_11char_traitsIcEENS_9allocatorIcEEEENS_12__value_typeIS7_11SymbolEntryEENS_4lessIS7_EELb1EEEEC2B8ne180100IiRKSD_EEOT_OT0_, symObjAddr: 0x369C, symBinAddr: 0x100007220, symSize: 0x44 }
  - { offset: 0xA447, size: 0x8, addend: 0x0, symName: __ZNSt3__122__compressed_pair_elemImLi0ELb0EEC2B8ne180100IivEEOT_, symObjAddr: 0x36E0, symBinAddr: 0x100007264, symSize: 0x24 }
  - { offset: 0xA487, size: 0x8, addend: 0x0, symName: __ZNSt3__122__compressed_pair_elemINS_19__map_value_compareINS_12basic_stringIcNS_11char_traitsIcEENS_9allocatorIcEEEENS_12__value_typeIS7_11SymbolEntryEENS_4lessIS7_EELb1EEELi1ELb1EEC2B8ne180100IRKSD_vEEOT_, symObjAddr: 0x3704, symBinAddr: 0x100007288, symSize: 0x18 }
  - { offset: 0xA4C7, size: 0x8, addend: 0x0, symName: __ZNSt3__114pointer_traitsIPNS_15__tree_end_nodeIPNS_16__tree_node_baseIPvEEEEE10pointer_toB8ne180100ERS6_, symObjAddr: 0x371C, symBinAddr: 0x1000072A0, symSize: 0x14 }
  - { offset: 0xA4E9, size: 0x8, addend: 0x0, symName: __ZNSt3__117__compressed_pairINS_15__tree_end_nodeIPNS_16__tree_node_baseIPvEEEENS_9allocatorINS_11__tree_nodeINS_12__value_typeINS_12basic_stringIcNS_11char_traitsIcEENS7_IcEEEE11SymbolEntryEES3_EEEEE5firstB8ne180100Ev, symObjAddr: 0x3730, symBinAddr: 0x1000072B4, symSize: 0x24 }
  - { offset: 0xA50D, size: 0x8, addend: 0x0, symName: __ZNSt3__122__compressed_pair_elemINS_15__tree_end_nodeIPNS_16__tree_node_baseIPvEEEELi0ELb0EE5__getB8ne180100Ev, symObjAddr: 0x3754, symBinAddr: 0x1000072D8, symSize: 0x14 }
  - { offset: 0xA531, size: 0x8, addend: 0x0, symName: __ZNSt3__13mapINS_12basic_stringIcNS_11char_traitsIcEENS_9allocatorIcEEEE11SymbolEntryNS_4lessIS6_EENS4_INS_4pairIKS6_S7_EEEEED2B8ne180100Ev, symObjAddr: 0x3768, symBinAddr: 0x1000072EC, symSize: 0x2C }
  - { offset: 0xA559, size: 0x8, addend: 0x0, symName: __ZNSt3__16__treeINS_12__value_typeINS_12basic_stringIcNS_11char_traitsIcEENS_9allocatorIcEEEE11SymbolEntryEENS_19__map_value_compareIS7_S9_NS_4lessIS7_EELb1EEENS5_IS9_EEED1Ev, symObjAddr: 0x3794, symBinAddr: 0x100007318, symSize: 0x2C }
  - { offset: 0xA583, size: 0x8, addend: 0x0, symName: __ZNSt3__16__treeINS_12__value_typeINS_12basic_stringIcNS_11char_traitsIcEENS_9allocatorIcEEEE11SymbolEntryEENS_19__map_value_compareIS7_S9_NS_4lessIS7_EELb1EEENS5_IS9_EEED2Ev, symObjAddr: 0x37C0, symBinAddr: 0x100007344, symSize: 0x38 }
  - { offset: 0xA5AD, size: 0x8, addend: 0x0, symName: __ZNSt3__16__treeINS_12__value_typeINS_12basic_stringIcNS_11char_traitsIcEENS_9allocatorIcEEEE11SymbolEntryEENS_19__map_value_compareIS7_S9_NS_4lessIS7_EELb1EEENS5_IS9_EEE7destroyEPNS_11__tree_nodeIS9_PvEE, symObjAddr: 0x37F8, symBinAddr: 0x10000737C, symSize: 0xC0 }
  - { offset: 0xA5FF, size: 0x8, addend: 0x0, symName: __ZNKSt3__16__treeINS_12__value_typeINS_12basic_stringIcNS_11char_traitsIcEENS_9allocatorIcEEEE11SymbolEntryEENS_19__map_value_compareIS7_S9_NS_4lessIS7_EELb1EEENS5_IS9_EEE6__rootB8ne180100Ev, symObjAddr: 0x38B8, symBinAddr: 0x10000743C, symSize: 0x28 }
  - { offset: 0xA623, size: 0x8, addend: 0x0, symName: __ZNSt3__16__treeINS_12__value_typeINS_12basic_stringIcNS_11char_traitsIcEENS_9allocatorIcEEEE11SymbolEntryEENS_19__map_value_compareIS7_S9_NS_4lessIS7_EELb1EEENS5_IS9_EEE12__node_allocB8ne180100Ev, symObjAddr: 0x38E0, symBinAddr: 0x100007464, symSize: 0x28 }
  - { offset: 0xA647, size: 0x8, addend: 0x0, symName: __ZNSt3__116allocator_traitsINS_9allocatorINS_11__tree_nodeINS_12__value_typeINS_12basic_stringIcNS_11char_traitsIcEENS1_IcEEEE11SymbolEntryEEPvEEEEE7destroyB8ne180100INS_4pairIKS8_S9_EEvvEEvRSD_PT_, symObjAddr: 0x3908, symBinAddr: 0x10000748C, symSize: 0x28 }
  - { offset: 0xA680, size: 0x8, addend: 0x0, symName: __ZNSt3__122__tree_key_value_typesINS_12__value_typeINS_12basic_stringIcNS_11char_traitsIcEENS_9allocatorIcEEEE11SymbolEntryEEE9__get_ptrB8ne180100ERS9_, symObjAddr: 0x3930, symBinAddr: 0x1000074B4, symSize: 0x24 }
  - { offset: 0xA6A3, size: 0x8, addend: 0x0, symName: __ZNSt3__116allocator_traitsINS_9allocatorINS_11__tree_nodeINS_12__value_typeINS_12basic_stringIcNS_11char_traitsIcEENS1_IcEEEE11SymbolEntryEEPvEEEEE10deallocateB8ne180100ERSD_PSC_m, symObjAddr: 0x3954, symBinAddr: 0x1000074D8, symSize: 0x34 }
  - { offset: 0xA6E4, size: 0x8, addend: 0x0, symName: __ZNSt3__117__compressed_pairINS_15__tree_end_nodeIPNS_16__tree_node_baseIPvEEEENS_9allocatorINS_11__tree_nodeINS_12__value_typeINS_12basic_stringIcNS_11char_traitsIcEENS7_IcEEEE11SymbolEntryEES3_EEEEE6secondB8ne180100Ev, symObjAddr: 0x3988, symBinAddr: 0x10000750C, symSize: 0x24 }
  - { offset: 0xA708, size: 0x8, addend: 0x0, symName: __ZNSt3__122__compressed_pair_elemINS_9allocatorINS_11__tree_nodeINS_12__value_typeINS_12basic_stringIcNS_11char_traitsIcEENS1_IcEEEE11SymbolEntryEEPvEEEELi1ELb1EE5__getB8ne180100Ev, symObjAddr: 0x39AC, symBinAddr: 0x100007530, symSize: 0x14 }
  - { offset: 0xA72C, size: 0x8, addend: 0x0, symName: __ZNSt3__14pairIKNS_12basic_stringIcNS_11char_traitsIcEENS_9allocatorIcEEEE11SymbolEntryED1Ev, symObjAddr: 0x39E4, symBinAddr: 0x100007568, symSize: 0x2C }
  - { offset: 0xA756, size: 0x8, addend: 0x0, symName: __ZNSt3__14pairIKNS_12basic_stringIcNS_11char_traitsIcEENS_9allocatorIcEEEE11SymbolEntryED2Ev, symObjAddr: 0x3A10, symBinAddr: 0x100007594, symSize: 0x2C }
  - { offset: 0xA780, size: 0x8, addend: 0x0, symName: __ZNSt3__112__value_typeINS_12basic_stringIcNS_11char_traitsIcEENS_9allocatorIcEEEE11SymbolEntryE11__get_valueB8ne180100Ev, symObjAddr: 0x3A3C, symBinAddr: 0x1000075C0, symSize: 0x14 }
  - { offset: 0xA7A4, size: 0x8, addend: 0x0, symName: __ZNSt3__19allocatorINS_11__tree_nodeINS_12__value_typeINS_12basic_stringIcNS_11char_traitsIcEENS0_IcEEEE11SymbolEntryEEPvEEE10deallocateB8ne180100EPSB_m, symObjAddr: 0x3A50, symBinAddr: 0x1000075D4, symSize: 0x74 }
  - { offset: 0xA7E4, size: 0x8, addend: 0x0, symName: __ZNKSt3__16__treeINS_12__value_typeINS_12basic_stringIcNS_11char_traitsIcEENS_9allocatorIcEEEE11SymbolEntryEENS_19__map_value_compareIS7_S9_NS_4lessIS7_EELb1EEENS5_IS9_EEE10__end_nodeB8ne180100Ev, symObjAddr: 0x3B4C, symBinAddr: 0x1000076D0, symSize: 0x2C }
  - { offset: 0xA808, size: 0x8, addend: 0x0, symName: __ZNKSt3__117__compressed_pairINS_15__tree_end_nodeIPNS_16__tree_node_baseIPvEEEENS_9allocatorINS_11__tree_nodeINS_12__value_typeINS_12basic_stringIcNS_11char_traitsIcEENS7_IcEEEE11SymbolEntryEES3_EEEEE5firstB8ne180100Ev, symObjAddr: 0x3B78, symBinAddr: 0x1000076FC, symSize: 0x24 }
  - { offset: 0xA82C, size: 0x8, addend: 0x0, symName: __ZNKSt3__122__compressed_pair_elemINS_15__tree_end_nodeIPNS_16__tree_node_baseIPvEEEELi0ELb0EE5__getB8ne180100Ev, symObjAddr: 0x3B9C, symBinAddr: 0x100007720, symSize: 0x14 }
  - { offset: 0xA850, size: 0x8, addend: 0x0, symName: __ZNSt3__13mapINS_12basic_stringIcNS_11char_traitsIcEENS_9allocatorIcEEEE12_DATA_TYPES_NS_4lessIS6_EENS4_INS_4pairIKS6_S7_EEEEEC2B8ne180100Ev, symObjAddr: 0x3BB0, symBinAddr: 0x100007734, symSize: 0x40 }
  - { offset: 0xA878, size: 0x8, addend: 0x0, symName: __ZNSt3__119__map_value_compareINS_12basic_stringIcNS_11char_traitsIcEENS_9allocatorIcEEEENS_12__value_typeIS6_12_DATA_TYPES_EENS_4lessIS6_EELb1EEC1B8ne180100ESB_, symObjAddr: 0x3BF0, symBinAddr: 0x100007774, symSize: 0x2C }
  - { offset: 0xA8AF, size: 0x8, addend: 0x0, symName: __ZNSt3__16__treeINS_12__value_typeINS_12basic_stringIcNS_11char_traitsIcEENS_9allocatorIcEEEE12_DATA_TYPES_EENS_19__map_value_compareIS7_S9_NS_4lessIS7_EELb1EEENS5_IS9_EEEC1ERKSD_, symObjAddr: 0x3C1C, symBinAddr: 0x1000077A0, symSize: 0x34 }
  - { offset: 0xA8E8, size: 0x8, addend: 0x0, symName: __ZNSt3__119__map_value_compareINS_12basic_stringIcNS_11char_traitsIcEENS_9allocatorIcEEEENS_12__value_typeIS6_12_DATA_TYPES_EENS_4lessIS6_EELb1EEC2B8ne180100ESB_, symObjAddr: 0x3C50, symBinAddr: 0x1000077D4, symSize: 0x14 }
  - { offset: 0xA91F, size: 0x8, addend: 0x0, symName: __ZNSt3__16__treeINS_12__value_typeINS_12basic_stringIcNS_11char_traitsIcEENS_9allocatorIcEEEE12_DATA_TYPES_EENS_19__map_value_compareIS7_S9_NS_4lessIS7_EELb1EEENS5_IS9_EEEC2ERKSD_, symObjAddr: 0x3C64, symBinAddr: 0x1000077E8, symSize: 0x70 }
  - { offset: 0xA958, size: 0x8, addend: 0x0, symName: __ZNSt3__117__compressed_pairINS_15__tree_end_nodeIPNS_16__tree_node_baseIPvEEEENS_9allocatorINS_11__tree_nodeINS_12__value_typeINS_12basic_stringIcNS_11char_traitsIcEENS7_IcEEEE12_DATA_TYPES_EES3_EEEEEC1B8ne180100ILb1EvEEv, symObjAddr: 0x3CD4, symBinAddr: 0x100007858, symSize: 0x2C }
  - { offset: 0xA98B, size: 0x8, addend: 0x0, symName: __ZNSt3__117__compressed_pairImNS_19__map_value_compareINS_12basic_stringIcNS_11char_traitsIcEENS_9allocatorIcEEEENS_12__value_typeIS7_12_DATA_TYPES_EENS_4lessIS7_EELb1EEEEC1B8ne180100IiRKSD_EEOT_OT0_, symObjAddr: 0x3D00, symBinAddr: 0x100007884, symSize: 0x3C }
  - { offset: 0xA9E1, size: 0x8, addend: 0x0, symName: __ZNSt3__16__treeINS_12__value_typeINS_12basic_stringIcNS_11char_traitsIcEENS_9allocatorIcEEEE12_DATA_TYPES_EENS_19__map_value_compareIS7_S9_NS_4lessIS7_EELb1EEENS5_IS9_EEE10__end_nodeB8ne180100Ev, symObjAddr: 0x3D3C, symBinAddr: 0x1000078C0, symSize: 0x2C }
  - { offset: 0xAA05, size: 0x8, addend: 0x0, symName: __ZNSt3__16__treeINS_12__value_typeINS_12basic_stringIcNS_11char_traitsIcEENS_9allocatorIcEEEE12_DATA_TYPES_EENS_19__map_value_compareIS7_S9_NS_4lessIS7_EELb1EEENS5_IS9_EEE12__begin_nodeB8ne180100Ev, symObjAddr: 0x3D68, symBinAddr: 0x1000078EC, symSize: 0x14 }
  - { offset: 0xAA29, size: 0x8, addend: 0x0, symName: __ZNSt3__117__compressed_pairINS_15__tree_end_nodeIPNS_16__tree_node_baseIPvEEEENS_9allocatorINS_11__tree_nodeINS_12__value_typeINS_12basic_stringIcNS_11char_traitsIcEENS7_IcEEEE12_DATA_TYPES_EES3_EEEEEC2B8ne180100ILb1EvEEv, symObjAddr: 0x3D7C, symBinAddr: 0x100007900, symSize: 0x34 }
  - { offset: 0xAA5C, size: 0x8, addend: 0x0, symName: __ZNSt3__122__compressed_pair_elemINS_9allocatorINS_11__tree_nodeINS_12__value_typeINS_12basic_stringIcNS_11char_traitsIcEENS1_IcEEEE12_DATA_TYPES_EEPvEEEELi1ELb1EEC2B8ne180100ENS_16__value_init_tagE, symObjAddr: 0x3DB0, symBinAddr: 0x100007934, symSize: 0x2C }
  - { offset: 0xAA8E, size: 0x8, addend: 0x0, symName: __ZNSt3__19allocatorINS_11__tree_nodeINS_12__value_typeINS_12basic_stringIcNS_11char_traitsIcEENS0_IcEEEE12_DATA_TYPES_EEPvEEEC2B8ne180100Ev, symObjAddr: 0x3DDC, symBinAddr: 0x100007960, symSize: 0x2C }
  - { offset: 0xAAB6, size: 0x8, addend: 0x0, symName: __ZNSt3__116__non_trivial_ifILb1ENS_9allocatorINS_11__tree_nodeINS_12__value_typeINS_12basic_stringIcNS_11char_traitsIcEENS1_IcEEEE12_DATA_TYPES_EEPvEEEEEC2B8ne180100Ev, symObjAddr: 0x3E08, symBinAddr: 0x10000798C, symSize: 0x14 }
  - { offset: 0xAADE, size: 0x8, addend: 0x0, symName: __ZNSt3__117__compressed_pairImNS_19__map_value_compareINS_12basic_stringIcNS_11char_traitsIcEENS_9allocatorIcEEEENS_12__value_typeIS7_12_DATA_TYPES_EENS_4lessIS7_EELb1EEEEC2B8ne180100IiRKSD_EEOT_OT0_, symObjAddr: 0x3E1C, symBinAddr: 0x1000079A0, symSize: 0x44 }
  - { offset: 0xAB34, size: 0x8, addend: 0x0, symName: __ZNSt3__122__compressed_pair_elemINS_19__map_value_compareINS_12basic_stringIcNS_11char_traitsIcEENS_9allocatorIcEEEENS_12__value_typeIS7_12_DATA_TYPES_EENS_4lessIS7_EELb1EEELi1ELb1EEC2B8ne180100IRKSD_vEEOT_, symObjAddr: 0x3E60, symBinAddr: 0x1000079E4, symSize: 0x18 }
  - { offset: 0xAB74, size: 0x8, addend: 0x0, symName: __ZNSt3__117__compressed_pairINS_15__tree_end_nodeIPNS_16__tree_node_baseIPvEEEENS_9allocatorINS_11__tree_nodeINS_12__value_typeINS_12basic_stringIcNS_11char_traitsIcEENS7_IcEEEE12_DATA_TYPES_EES3_EEEEE5firstB8ne180100Ev, symObjAddr: 0x3E78, symBinAddr: 0x1000079FC, symSize: 0x24 }
  - { offset: 0xAB98, size: 0x8, addend: 0x0, symName: __ZNSt3__13mapINS_12basic_stringIcNS_11char_traitsIcEENS_9allocatorIcEEEE12_DATA_TYPES_NS_4lessIS6_EENS4_INS_4pairIKS6_S7_EEEEED2B8ne180100Ev, symObjAddr: 0x3E9C, symBinAddr: 0x100007A20, symSize: 0x2C }
  - { offset: 0xABC0, size: 0x8, addend: 0x0, symName: __ZNSt3__16__treeINS_12__value_typeINS_12basic_stringIcNS_11char_traitsIcEENS_9allocatorIcEEEE12_DATA_TYPES_EENS_19__map_value_compareIS7_S9_NS_4lessIS7_EELb1EEENS5_IS9_EEED1Ev, symObjAddr: 0x3EC8, symBinAddr: 0x100007A4C, symSize: 0x2C }
  - { offset: 0xABEA, size: 0x8, addend: 0x0, symName: __ZNSt3__16__treeINS_12__value_typeINS_12basic_stringIcNS_11char_traitsIcEENS_9allocatorIcEEEE12_DATA_TYPES_EENS_19__map_value_compareIS7_S9_NS_4lessIS7_EELb1EEENS5_IS9_EEED2Ev, symObjAddr: 0x3EF4, symBinAddr: 0x100007A78, symSize: 0x38 }
  - { offset: 0xAC14, size: 0x8, addend: 0x0, symName: __ZNSt3__16__treeINS_12__value_typeINS_12basic_stringIcNS_11char_traitsIcEENS_9allocatorIcEEEE12_DATA_TYPES_EENS_19__map_value_compareIS7_S9_NS_4lessIS7_EELb1EEENS5_IS9_EEE7destroyEPNS_11__tree_nodeIS9_PvEE, symObjAddr: 0x3F2C, symBinAddr: 0x100007AB0, symSize: 0xC0 }
  - { offset: 0xAC66, size: 0x8, addend: 0x0, symName: __ZNKSt3__16__treeINS_12__value_typeINS_12basic_stringIcNS_11char_traitsIcEENS_9allocatorIcEEEE12_DATA_TYPES_EENS_19__map_value_compareIS7_S9_NS_4lessIS7_EELb1EEENS5_IS9_EEE6__rootB8ne180100Ev, symObjAddr: 0x3FEC, symBinAddr: 0x100007B70, symSize: 0x28 }
  - { offset: 0xAC8A, size: 0x8, addend: 0x0, symName: __ZNSt3__16__treeINS_12__value_typeINS_12basic_stringIcNS_11char_traitsIcEENS_9allocatorIcEEEE12_DATA_TYPES_EENS_19__map_value_compareIS7_S9_NS_4lessIS7_EELb1EEENS5_IS9_EEE12__node_allocB8ne180100Ev, symObjAddr: 0x4014, symBinAddr: 0x100007B98, symSize: 0x28 }
  - { offset: 0xACAE, size: 0x8, addend: 0x0, symName: __ZNSt3__116allocator_traitsINS_9allocatorINS_11__tree_nodeINS_12__value_typeINS_12basic_stringIcNS_11char_traitsIcEENS1_IcEEEE12_DATA_TYPES_EEPvEEEEE7destroyB8ne180100INS_4pairIKS8_S9_EEvvEEvRSD_PT_, symObjAddr: 0x403C, symBinAddr: 0x100007BC0, symSize: 0x28 }
  - { offset: 0xACE7, size: 0x8, addend: 0x0, symName: __ZNSt3__122__tree_key_value_typesINS_12__value_typeINS_12basic_stringIcNS_11char_traitsIcEENS_9allocatorIcEEEE12_DATA_TYPES_EEE9__get_ptrB8ne180100ERS9_, symObjAddr: 0x4064, symBinAddr: 0x100007BE8, symSize: 0x24 }
  - { offset: 0xAD0A, size: 0x8, addend: 0x0, symName: __ZNSt3__116allocator_traitsINS_9allocatorINS_11__tree_nodeINS_12__value_typeINS_12basic_stringIcNS_11char_traitsIcEENS1_IcEEEE12_DATA_TYPES_EEPvEEEEE10deallocateB8ne180100ERSD_PSC_m, symObjAddr: 0x4088, symBinAddr: 0x100007C0C, symSize: 0x34 }
  - { offset: 0xAD4B, size: 0x8, addend: 0x0, symName: __ZNSt3__117__compressed_pairINS_15__tree_end_nodeIPNS_16__tree_node_baseIPvEEEENS_9allocatorINS_11__tree_nodeINS_12__value_typeINS_12basic_stringIcNS_11char_traitsIcEENS7_IcEEEE12_DATA_TYPES_EES3_EEEEE6secondB8ne180100Ev, symObjAddr: 0x40BC, symBinAddr: 0x100007C40, symSize: 0x24 }
  - { offset: 0xAD6F, size: 0x8, addend: 0x0, symName: __ZNSt3__122__compressed_pair_elemINS_9allocatorINS_11__tree_nodeINS_12__value_typeINS_12basic_stringIcNS_11char_traitsIcEENS1_IcEEEE12_DATA_TYPES_EEPvEEEELi1ELb1EE5__getB8ne180100Ev, symObjAddr: 0x40E0, symBinAddr: 0x100007C64, symSize: 0x14 }
  - { offset: 0xAD93, size: 0x8, addend: 0x0, symName: __ZNSt3__14pairIKNS_12basic_stringIcNS_11char_traitsIcEENS_9allocatorIcEEEE12_DATA_TYPES_ED1Ev, symObjAddr: 0x4118, symBinAddr: 0x100007C9C, symSize: 0x2C }
  - { offset: 0xADBD, size: 0x8, addend: 0x0, symName: __ZNSt3__14pairIKNS_12basic_stringIcNS_11char_traitsIcEENS_9allocatorIcEEEE12_DATA_TYPES_ED2Ev, symObjAddr: 0x4144, symBinAddr: 0x100007CC8, symSize: 0x2C }
  - { offset: 0xADE7, size: 0x8, addend: 0x0, symName: __ZNSt3__112__value_typeINS_12basic_stringIcNS_11char_traitsIcEENS_9allocatorIcEEEE12_DATA_TYPES_E11__get_valueB8ne180100Ev, symObjAddr: 0x4170, symBinAddr: 0x100007CF4, symSize: 0x14 }
  - { offset: 0xAE0B, size: 0x8, addend: 0x0, symName: __ZNSt3__19allocatorINS_11__tree_nodeINS_12__value_typeINS_12basic_stringIcNS_11char_traitsIcEENS0_IcEEEE12_DATA_TYPES_EEPvEEE10deallocateB8ne180100EPSB_m, symObjAddr: 0x4184, symBinAddr: 0x100007D08, symSize: 0x70 }
  - { offset: 0xAE4B, size: 0x8, addend: 0x0, symName: __ZNKSt3__16__treeINS_12__value_typeINS_12basic_stringIcNS_11char_traitsIcEENS_9allocatorIcEEEE12_DATA_TYPES_EENS_19__map_value_compareIS7_S9_NS_4lessIS7_EELb1EEENS5_IS9_EEE10__end_nodeB8ne180100Ev, symObjAddr: 0x41F4, symBinAddr: 0x100007D78, symSize: 0x2C }
  - { offset: 0xAE6F, size: 0x8, addend: 0x0, symName: __ZNKSt3__117__compressed_pairINS_15__tree_end_nodeIPNS_16__tree_node_baseIPvEEEENS_9allocatorINS_11__tree_nodeINS_12__value_typeINS_12basic_stringIcNS_11char_traitsIcEENS7_IcEEEE12_DATA_TYPES_EES3_EEEEE5firstB8ne180100Ev, symObjAddr: 0x4220, symBinAddr: 0x100007DA4, symSize: 0x24 }
  - { offset: 0xAE93, size: 0x8, addend: 0x0, symName: __ZNSt3__16__treeINS_12__value_typeINS_12basic_stringIcNS_11char_traitsIcEENS_9allocatorIcEEEE11SymbolEntryEENS_19__map_value_compareIS7_S9_NS_4lessIS7_EELb1EEENS5_IS9_EEE4findIS7_EENS_15__tree_iteratorIS9_PNS_11__tree_nodeIS9_PvEElEERKT_, symObjAddr: 0x4244, symBinAddr: 0x100007DC8, symSize: 0xF8 }
  - { offset: 0xAEE0, size: 0x8, addend: 0x0, symName: __ZNSt3__114__map_iteratorINS_15__tree_iteratorINS_12__value_typeINS_12basic_stringIcNS_11char_traitsIcEENS_9allocatorIcEEEE11SymbolEntryEEPNS_11__tree_nodeISA_PvEElEEEC1B8ne180100ESF_, symObjAddr: 0x433C, symBinAddr: 0x100007EC0, symSize: 0x34 }
  - { offset: 0xAF17, size: 0x8, addend: 0x0, symName: __ZNSt3__16__treeINS_12__value_typeINS_12basic_stringIcNS_11char_traitsIcEENS_9allocatorIcEEEE11SymbolEntryEENS_19__map_value_compareIS7_S9_NS_4lessIS7_EELb1EEENS5_IS9_EEE13__lower_boundIS7_EENS_15__tree_iteratorIS9_PNS_11__tree_nodeIS9_PvEElEERKT_SL_PNS_15__tree_end_nodeIPNS_16__tree_node_baseISJ_EEEE, symObjAddr: 0x4370, symBinAddr: 0x100007EF4, symSize: 0xA4 }
  - { offset: 0xAF73, size: 0x8, addend: 0x0, symName: __ZNSt3__16__treeINS_12__value_typeINS_12basic_stringIcNS_11char_traitsIcEENS_9allocatorIcEEEE11SymbolEntryEENS_19__map_value_compareIS7_S9_NS_4lessIS7_EELb1EEENS5_IS9_EEE3endB8ne180100Ev, symObjAddr: 0x4448, symBinAddr: 0x100007FCC, symSize: 0x34 }
  - { offset: 0xAF97, size: 0x8, addend: 0x0, symName: __ZNSt3__16__treeINS_12__value_typeINS_12basic_stringIcNS_11char_traitsIcEENS_9allocatorIcEEEE11SymbolEntryEENS_19__map_value_compareIS7_S9_NS_4lessIS7_EELb1EEENS5_IS9_EEE10value_compB8ne180100Ev, symObjAddr: 0x447C, symBinAddr: 0x100008000, symSize: 0x28 }
  - { offset: 0xAFBB, size: 0x8, addend: 0x0, symName: __ZNKSt3__119__map_value_compareINS_12basic_stringIcNS_11char_traitsIcEENS_9allocatorIcEEEENS_12__value_typeIS6_11SymbolEntryEENS_4lessIS6_EELb1EEclB8ne180100ERKS6_RKS9_, symObjAddr: 0x44A4, symBinAddr: 0x100008028, symSize: 0x50 }
  - { offset: 0xAFFD, size: 0x8, addend: 0x0, symName: __ZNKSt3__115__tree_iteratorINS_12__value_typeINS_12basic_stringIcNS_11char_traitsIcEENS_9allocatorIcEEEE11SymbolEntryEEPNS_11__tree_nodeIS9_PvEElEdeB8ne180100Ev, symObjAddr: 0x44F4, symBinAddr: 0x100008078, symSize: 0x28 }
  - { offset: 0xB021, size: 0x8, addend: 0x0, symName: __ZNKSt3__119__map_value_compareINS_12basic_stringIcNS_11char_traitsIcEENS_9allocatorIcEEEENS_12__value_typeIS6_11SymbolEntryEENS_4lessIS6_EELb1EEclB8ne180100ERKS9_RKS6_, symObjAddr: 0x451C, symBinAddr: 0x1000080A0, symSize: 0x48 }
  - { offset: 0xB063, size: 0x8, addend: 0x0, symName: __ZNSt3__115__tree_iteratorINS_12__value_typeINS_12basic_stringIcNS_11char_traitsIcEENS_9allocatorIcEEEE11SymbolEntryEEPNS_11__tree_nodeIS9_PvEElEC1B8ne180100EPNS_15__tree_end_nodeIPNS_16__tree_node_baseISB_EEEE, symObjAddr: 0x4564, symBinAddr: 0x1000080E8, symSize: 0x34 }
  - { offset: 0xB09A, size: 0x8, addend: 0x0, symName: __ZNKSt3__14lessINS_12basic_stringIcNS_11char_traitsIcEENS_9allocatorIcEEEEEclB8ne180100ERKS6_S9_, symObjAddr: 0x4598, symBinAddr: 0x10000811C, symSize: 0x34 }
  - { offset: 0xB0DC, size: 0x8, addend: 0x0, symName: __ZNKSt3__112__value_typeINS_12basic_stringIcNS_11char_traitsIcEENS_9allocatorIcEEEE11SymbolEntryE11__get_valueB8ne180100Ev, symObjAddr: 0x45CC, symBinAddr: 0x100008150, symSize: 0x14 }
  - { offset: 0xB100, size: 0x8, addend: 0x0, symName: __ZNKSt3__112basic_stringIcNS_11char_traitsIcEENS_9allocatorIcEEE7compareB8ne180100ERKS5_, symObjAddr: 0x4618, symBinAddr: 0x10000819C, symSize: 0x4C }
  - { offset: 0xB135, size: 0x8, addend: 0x0, symName: __ZNKSt3__112basic_stringIcNS_11char_traitsIcEENS_9allocatorIcEEE7compareINS_17basic_string_viewIcS2_EELi0EEEiRKT_, symObjAddr: 0x4664, symBinAddr: 0x1000081E8, symSize: 0x140 }
  - { offset: 0xB1B6, size: 0x8, addend: 0x0, symName: __ZNKSt3__112basic_stringIcNS_11char_traitsIcEENS_9allocatorIcEEEcvNS_17basic_string_viewIcS2_EEB8ne180100Ev, symObjAddr: 0x47A4, symBinAddr: 0x100008328, symSize: 0x50 }
  - { offset: 0xB1DA, size: 0x8, addend: 0x0, symName: __ZNKSt3__112basic_stringIcNS_11char_traitsIcEENS_9allocatorIcEEE4sizeB8ne180100Ev, symObjAddr: 0x47F4, symBinAddr: 0x100008378, symSize: 0x54 }
  - { offset: 0xB1FE, size: 0x8, addend: 0x0, symName: __ZNKSt3__117basic_string_viewIcNS_11char_traitsIcEEE4sizeB8ne180100Ev, symObjAddr: 0x4848, symBinAddr: 0x1000083CC, symSize: 0x18 }
  - { offset: 0xB222, size: 0x8, addend: 0x0, symName: __ZNSt3__111char_traitsIcE7compareB8ne180100EPKcS3_m, symObjAddr: 0x4860, symBinAddr: 0x1000083E4, symSize: 0x64 }
  - { offset: 0xB260, size: 0x8, addend: 0x0, symName: __ZNKSt3__112basic_stringIcNS_11char_traitsIcEENS_9allocatorIcEEE4dataB8ne180100Ev, symObjAddr: 0x48C4, symBinAddr: 0x100008448, symSize: 0x28 }
  - { offset: 0xB284, size: 0x8, addend: 0x0, symName: __ZNKSt3__117basic_string_viewIcNS_11char_traitsIcEEE4dataB8ne180100Ev, symObjAddr: 0x48EC, symBinAddr: 0x100008470, symSize: 0x18 }
  - { offset: 0xB2A8, size: 0x8, addend: 0x0, symName: __ZNKSt3__112basic_stringIcNS_11char_traitsIcEENS_9allocatorIcEEE9__is_longB8ne180100Ev, symObjAddr: 0x4930, symBinAddr: 0x1000084B4, symSize: 0x94 }
  - { offset: 0xB2CC, size: 0x8, addend: 0x0, symName: __ZNKSt3__112basic_stringIcNS_11char_traitsIcEENS_9allocatorIcEEE15__get_long_sizeB8ne180100Ev, symObjAddr: 0x49C4, symBinAddr: 0x100008548, symSize: 0x28 }
  - { offset: 0xB2F0, size: 0x8, addend: 0x0, symName: __ZNKSt3__112basic_stringIcNS_11char_traitsIcEENS_9allocatorIcEEE16__get_short_sizeB8ne180100Ev, symObjAddr: 0x49EC, symBinAddr: 0x100008570, symSize: 0x34 }
  - { offset: 0xB314, size: 0x8, addend: 0x0, symName: __ZNKSt3__117__compressed_pairINS_12basic_stringIcNS_11char_traitsIcEENS_9allocatorIcEEE5__repES5_E5firstB8ne180100Ev, symObjAddr: 0x4A20, symBinAddr: 0x1000085A4, symSize: 0x24 }
  - { offset: 0xB338, size: 0x8, addend: 0x0, symName: __ZNKSt3__122__compressed_pair_elemINS_12basic_stringIcNS_11char_traitsIcEENS_9allocatorIcEEE5__repELi0ELb0EE5__getB8ne180100Ev, symObjAddr: 0x4A44, symBinAddr: 0x1000085C8, symSize: 0x14 }
  - { offset: 0xB35C, size: 0x8, addend: 0x0, symName: __ZNKSt3__112basic_stringIcNS_11char_traitsIcEENS_9allocatorIcEEE13__get_pointerB8ne180100Ev, symObjAddr: 0x4A6C, symBinAddr: 0x1000085F0, symSize: 0x54 }
  - { offset: 0xB380, size: 0x8, addend: 0x0, symName: __ZNKSt3__112basic_stringIcNS_11char_traitsIcEENS_9allocatorIcEEE18__get_long_pointerB8ne180100Ev, symObjAddr: 0x4AC0, symBinAddr: 0x100008644, symSize: 0x28 }
  - { offset: 0xB3A4, size: 0x8, addend: 0x0, symName: __ZNKSt3__112basic_stringIcNS_11char_traitsIcEENS_9allocatorIcEEE19__get_short_pointerB8ne180100Ev, symObjAddr: 0x4AE8, symBinAddr: 0x10000866C, symSize: 0x28 }
  - { offset: 0xB3C8, size: 0x8, addend: 0x0, symName: __ZNSt3__114pointer_traitsIPKcE10pointer_toB8ne180100ERS1_, symObjAddr: 0x4B10, symBinAddr: 0x100008694, symSize: 0x14 }
  - { offset: 0xB3F4, size: 0x8, addend: 0x0, symName: __ZNKSt3__16__lessIvvEclB8ne180100ImmEEbRKT_RKT0_, symObjAddr: 0x4B78, symBinAddr: 0x1000086FC, symSize: 0x34 }
  - { offset: 0xB446, size: 0x8, addend: 0x0, symName: __ZNSt3__117basic_string_viewIcNS_11char_traitsIcEEEC1B8ne180100EPKcm, symObjAddr: 0x4BAC, symBinAddr: 0x100008730, symSize: 0x3C }
  - { offset: 0xB48C, size: 0x8, addend: 0x0, symName: __ZNSt3__117basic_string_viewIcNS_11char_traitsIcEEEC2B8ne180100EPKcm, symObjAddr: 0x4BE8, symBinAddr: 0x10000876C, symSize: 0x2C }
  - { offset: 0xB4D2, size: 0x8, addend: 0x0, symName: __ZNSt3__115__tree_iteratorINS_12__value_typeINS_12basic_stringIcNS_11char_traitsIcEENS_9allocatorIcEEEE11SymbolEntryEEPNS_11__tree_nodeIS9_PvEElEC2B8ne180100EPNS_15__tree_end_nodeIPNS_16__tree_node_baseISB_EEEE, symObjAddr: 0x4C14, symBinAddr: 0x100008798, symSize: 0x20 }
  - { offset: 0xB509, size: 0x8, addend: 0x0, symName: __ZNSt3__117__compressed_pairImNS_19__map_value_compareINS_12basic_stringIcNS_11char_traitsIcEENS_9allocatorIcEEEENS_12__value_typeIS7_11SymbolEntryEENS_4lessIS7_EELb1EEEE6secondB8ne180100Ev, symObjAddr: 0x4C64, symBinAddr: 0x1000087E8, symSize: 0x24 }
  - { offset: 0xB52D, size: 0x8, addend: 0x0, symName: __ZNSt3__122__compressed_pair_elemINS_19__map_value_compareINS_12basic_stringIcNS_11char_traitsIcEENS_9allocatorIcEEEENS_12__value_typeIS7_11SymbolEntryEENS_4lessIS7_EELb1EEELi1ELb1EE5__getB8ne180100Ev, symObjAddr: 0x4C88, symBinAddr: 0x10000880C, symSize: 0x14 }
  - { offset: 0xB551, size: 0x8, addend: 0x0, symName: __ZNKSt3__115__tree_iteratorINS_12__value_typeINS_12basic_stringIcNS_11char_traitsIcEENS_9allocatorIcEEEE11SymbolEntryEEPNS_11__tree_nodeIS9_PvEElE8__get_npB8ne180100Ev, symObjAddr: 0x4C9C, symBinAddr: 0x100008820, symSize: 0x18 }
  - { offset: 0xB575, size: 0x8, addend: 0x0, symName: __ZNSt3__114__map_iteratorINS_15__tree_iteratorINS_12__value_typeINS_12basic_stringIcNS_11char_traitsIcEENS_9allocatorIcEEEE11SymbolEntryEEPNS_11__tree_nodeISA_PvEElEEEC2B8ne180100ESF_, symObjAddr: 0x4CB4, symBinAddr: 0x100008838, symSize: 0x20 }
  - { offset: 0xB5AC, size: 0x8, addend: 0x0, symName: __ZNSt3__112basic_stringIcNS_11char_traitsIcEENS_9allocatorIcEEEC2B8ne180100ILi0EEEPKc, symObjAddr: 0x4CD4, symBinAddr: 0x100008858, symSize: 0x58 }
  - { offset: 0xB5EE, size: 0x8, addend: 0x0, symName: __ZNSt3__117__compressed_pairINS_12basic_stringIcNS_11char_traitsIcEENS_9allocatorIcEEE5__repES5_EC1B8ne180100INS_18__default_init_tagESA_EEOT_OT0_, symObjAddr: 0x4D2C, symBinAddr: 0x1000088B0, symSize: 0x3C }
  - { offset: 0xB644, size: 0x8, addend: 0x0, symName: __ZNSt3__111char_traitsIcE6lengthB8ne180100EPKc, symObjAddr: 0x4D68, symBinAddr: 0x1000088EC, symSize: 0x48 }
  - { offset: 0xB666, size: 0x8, addend: 0x0, symName: __ZNSt3__117__compressed_pairINS_12basic_stringIcNS_11char_traitsIcEENS_9allocatorIcEEE5__repES5_EC2B8ne180100INS_18__default_init_tagESA_EEOT_OT0_, symObjAddr: 0x4DB0, symBinAddr: 0x100008934, symSize: 0x3C }
  - { offset: 0xB6BC, size: 0x8, addend: 0x0, symName: __ZNSt3__122__compressed_pair_elemINS_12basic_stringIcNS_11char_traitsIcEENS_9allocatorIcEEE5__repELi0ELb0EEC2B8ne180100ENS_18__default_init_tagE, symObjAddr: 0x4DEC, symBinAddr: 0x100008970, symSize: 0x14 }
  - { offset: 0xB6EE, size: 0x8, addend: 0x0, symName: __ZNSt3__122__compressed_pair_elemINS_9allocatorIcEELi1ELb1EEC2B8ne180100ENS_18__default_init_tagE, symObjAddr: 0x4E00, symBinAddr: 0x100008984, symSize: 0x2C }
  - { offset: 0xB720, size: 0x8, addend: 0x0, symName: __ZNSt3__19allocatorIcEC2B8ne180100Ev, symObjAddr: 0x4E2C, symBinAddr: 0x1000089B0, symSize: 0x2C }
  - { offset: 0xB748, size: 0x8, addend: 0x0, symName: __ZNSt3__116__non_trivial_ifILb1ENS_9allocatorIcEEEC2B8ne180100Ev, symObjAddr: 0x4E58, symBinAddr: 0x1000089DC, symSize: 0x14 }
  - { offset: 0xB770, size: 0x8, addend: 0x0, symName: __ZNSt3__16__treeINS_12__value_typeINS_12basic_stringIcNS_11char_traitsIcEENS_9allocatorIcEEEE11SymbolEntryEENS_19__map_value_compareIS7_S9_NS_4lessIS7_EELb1EEENS5_IS9_EEE12__find_equalIS7_EERPNS_16__tree_node_baseIPvEERPNS_15__tree_end_nodeISK_EERKT_, symObjAddr: 0x4E90, symBinAddr: 0x100008A14, symSize: 0x184 }
  - { offset: 0xB7DB, size: 0x8, addend: 0x0, symName: __ZNSt3__13mapINS_12basic_stringIcNS_11char_traitsIcEENS_9allocatorIcEEEE11SymbolEntryNS_4lessIS6_EENS4_INS_4pairIKS6_S7_EEEEE25__construct_node_with_keyERSB_, symObjAddr: 0x5014, symBinAddr: 0x100008B98, symSize: 0x144 }
  - { offset: 0xB82F, size: 0x8, addend: 0x0, symName: __ZNSt3__16__treeINS_12__value_typeINS_12basic_stringIcNS_11char_traitsIcEENS_9allocatorIcEEEE11SymbolEntryEENS_19__map_value_compareIS7_S9_NS_4lessIS7_EELb1EEENS5_IS9_EEE16__insert_node_atEPNS_15__tree_end_nodeIPNS_16__tree_node_baseIPvEEEERSK_SK_, symObjAddr: 0x5158, symBinAddr: 0x100008CDC, symSize: 0xCC }
  - { offset: 0xB882, size: 0x8, addend: 0x0, symName: __ZNKSt3__110unique_ptrINS_11__tree_nodeINS_12__value_typeINS_12basic_stringIcNS_11char_traitsIcEENS_9allocatorIcEEEE11SymbolEntryEEPvEENS_21__map_node_destructorINS6_ISC_EEEEE3getB8ne180100Ev, symObjAddr: 0x5224, symBinAddr: 0x100008DA8, symSize: 0x28 }
  - { offset: 0xB8A6, size: 0x8, addend: 0x0, symName: __ZNSt3__110unique_ptrINS_11__tree_nodeINS_12__value_typeINS_12basic_stringIcNS_11char_traitsIcEENS_9allocatorIcEEEE11SymbolEntryEEPvEENS_21__map_node_destructorINS6_ISC_EEEEE7releaseB8ne180100Ev, symObjAddr: 0x524C, symBinAddr: 0x100008DD0, symSize: 0x44 }
  - { offset: 0xB8D9, size: 0x8, addend: 0x0, symName: __ZNSt3__110unique_ptrINS_11__tree_nodeINS_12__value_typeINS_12basic_stringIcNS_11char_traitsIcEENS_9allocatorIcEEEE11SymbolEntryEEPvEENS_21__map_node_destructorINS6_ISC_EEEEED1B8ne180100Ev, symObjAddr: 0x5290, symBinAddr: 0x100008E14, symSize: 0x2C }
  - { offset: 0xB901, size: 0x8, addend: 0x0, symName: __ZNKSt3__16__treeINS_12__value_typeINS_12basic_stringIcNS_11char_traitsIcEENS_9allocatorIcEEEE11SymbolEntryEENS_19__map_value_compareIS7_S9_NS_4lessIS7_EELb1EEENS5_IS9_EEE10__root_ptrB8ne180100Ev, symObjAddr: 0x52BC, symBinAddr: 0x100008E40, symSize: 0x24 }
  - { offset: 0xB925, size: 0x8, addend: 0x0, symName: __ZNSt3__116allocator_traitsINS_9allocatorINS_11__tree_nodeINS_12__value_typeINS_12basic_stringIcNS_11char_traitsIcEENS1_IcEEEE11SymbolEntryEEPvEEEEE8allocateB8ne180100ERSD_m, symObjAddr: 0x52E0, symBinAddr: 0x100008E64, symSize: 0x2C }
  - { offset: 0xB957, size: 0x8, addend: 0x0, symName: __ZNSt3__121__map_node_destructorINS_9allocatorINS_11__tree_nodeINS_12__value_typeINS_12basic_stringIcNS_11char_traitsIcEENS1_IcEEEE11SymbolEntryEEPvEEEEEC1B8ne180100ERSD_, symObjAddr: 0x530C, symBinAddr: 0x100008E90, symSize: 0x34 }
  - { offset: 0xB993, size: 0x8, addend: 0x0, symName: __ZNSt3__110unique_ptrINS_11__tree_nodeINS_12__value_typeINS_12basic_stringIcNS_11char_traitsIcEENS_9allocatorIcEEEE11SymbolEntryEEPvEENS_21__map_node_destructorINS6_ISC_EEEEEC1B8ne180100ILb1EvEEPSC_NS_16__dependent_typeINS_27__unique_ptr_deleter_sfinaeISF_EEXT_EE20__good_rval_ref_typeE, symObjAddr: 0x5340, symBinAddr: 0x100008EC4, symSize: 0x3C }
  - { offset: 0xB9E7, size: 0x8, addend: 0x0, symName: __ZNSt3__116allocator_traitsINS_9allocatorINS_11__tree_nodeINS_12__value_typeINS_12basic_stringIcNS_11char_traitsIcEENS1_IcEEEE11SymbolEntryEEPvEEEEE9constructB8ne180100IKS8_JRSG_EvEEvRSD_PT_DpOT0_, symObjAddr: 0x537C, symBinAddr: 0x100008F00, symSize: 0x34 }
  - { offset: 0xBA3D, size: 0x8, addend: 0x0, symName: __ZNKSt3__110unique_ptrINS_11__tree_nodeINS_12__value_typeINS_12basic_stringIcNS_11char_traitsIcEENS_9allocatorIcEEEE11SymbolEntryEEPvEENS_21__map_node_destructorINS6_ISC_EEEEEptB8ne180100Ev, symObjAddr: 0x53B0, symBinAddr: 0x100008F34, symSize: 0x28 }
  - { offset: 0xBA61, size: 0x8, addend: 0x0, symName: __ZNSt3__110unique_ptrINS_11__tree_nodeINS_12__value_typeINS_12basic_stringIcNS_11char_traitsIcEENS_9allocatorIcEEEE11SymbolEntryEEPvEENS_21__map_node_destructorINS6_ISC_EEEEE11get_deleterB8ne180100Ev, symObjAddr: 0x53D8, symBinAddr: 0x100008F5C, symSize: 0x24 }
  - { offset: 0xBA8A, size: 0x8, addend: 0x0, symName: __ZNSt3__116allocator_traitsINS_9allocatorINS_11__tree_nodeINS_12__value_typeINS_12basic_stringIcNS_11char_traitsIcEENS1_IcEEEE11SymbolEntryEEPvEEEEE9constructB8ne180100IS9_JEvEEvRSD_PT_DpOT0_, symObjAddr: 0x53FC, symBinAddr: 0x100008F80, symSize: 0x2C }
  - { offset: 0xBACB, size: 0x8, addend: 0x0, symName: __ZNSt3__19allocatorINS_11__tree_nodeINS_12__value_typeINS_12basic_stringIcNS_11char_traitsIcEENS0_IcEEEE11SymbolEntryEEPvEEE8allocateB8ne180100Em, symObjAddr: 0x5428, symBinAddr: 0x100008FAC, symSize: 0x8C }
  - { offset: 0xBB07, size: 0x8, addend: 0x0, symName: __ZNSt3__116allocator_traitsINS_9allocatorINS_11__tree_nodeINS_12__value_typeINS_12basic_stringIcNS_11char_traitsIcEENS1_IcEEEE11SymbolEntryEEPvEEEEE8max_sizeB8ne180100ISD_vEEmRKSD_, symObjAddr: 0x54B4, symBinAddr: 0x100009038, symSize: 0x24 }
  - { offset: 0xBB34, size: 0x8, addend: 0x0, symName: __ZNKSt3__19allocatorINS_11__tree_nodeINS_12__value_typeINS_12basic_stringIcNS_11char_traitsIcEENS0_IcEEEE11SymbolEntryEEPvEEE8max_sizeB8ne180100Ev, symObjAddr: 0x5534, symBinAddr: 0x1000090B8, symSize: 0x20 }
  - { offset: 0xBB58, size: 0x8, addend: 0x0, symName: __ZNSt3__121__map_node_destructorINS_9allocatorINS_11__tree_nodeINS_12__value_typeINS_12basic_stringIcNS_11char_traitsIcEENS1_IcEEEE11SymbolEntryEEPvEEEEEC2B8ne180100ERSD_, symObjAddr: 0x5578, symBinAddr: 0x1000090FC, symSize: 0x28 }
  - { offset: 0xBB8F, size: 0x8, addend: 0x0, symName: __ZNSt3__110unique_ptrINS_11__tree_nodeINS_12__value_typeINS_12basic_stringIcNS_11char_traitsIcEENS_9allocatorIcEEEE11SymbolEntryEEPvEENS_21__map_node_destructorINS6_ISC_EEEEEC2B8ne180100ILb1EvEEPSC_NS_16__dependent_typeINS_27__unique_ptr_deleter_sfinaeISF_EEXT_EE20__good_rval_ref_typeE, symObjAddr: 0x55A0, symBinAddr: 0x100009124, symSize: 0x5C }
  - { offset: 0xBBDE, size: 0x8, addend: 0x0, symName: __ZNSt3__117__compressed_pairIPNS_11__tree_nodeINS_12__value_typeINS_12basic_stringIcNS_11char_traitsIcEENS_9allocatorIcEEEE11SymbolEntryEEPvEENS_21__map_node_destructorINS6_ISC_EEEEEC1B8ne180100IRSD_SG_EEOT_OT0_, symObjAddr: 0x55FC, symBinAddr: 0x100009180, symSize: 0x3C }
  - { offset: 0xBC34, size: 0x8, addend: 0x0, symName: __ZNSt3__117__compressed_pairIPNS_11__tree_nodeINS_12__value_typeINS_12basic_stringIcNS_11char_traitsIcEENS_9allocatorIcEEEE11SymbolEntryEEPvEENS_21__map_node_destructorINS6_ISC_EEEEEC2B8ne180100IRSD_SG_EEOT_OT0_, symObjAddr: 0x5638, symBinAddr: 0x1000091BC, symSize: 0x48 }
  - { offset: 0xBC8A, size: 0x8, addend: 0x0, symName: __ZNSt3__122__compressed_pair_elemIPNS_11__tree_nodeINS_12__value_typeINS_12basic_stringIcNS_11char_traitsIcEENS_9allocatorIcEEEE11SymbolEntryEEPvEELi0ELb0EEC2B8ne180100IRSD_vEEOT_, symObjAddr: 0x5680, symBinAddr: 0x100009204, symSize: 0x24 }
  - { offset: 0xBCCA, size: 0x8, addend: 0x0, symName: __ZNSt3__122__compressed_pair_elemINS_21__map_node_destructorINS_9allocatorINS_11__tree_nodeINS_12__value_typeINS_12basic_stringIcNS_11char_traitsIcEENS2_IcEEEE11SymbolEntryEEPvEEEEEELi1ELb0EEC2B8ne180100ISF_vEEOT_, symObjAddr: 0x56A4, symBinAddr: 0x100009228, symSize: 0x24 }
  - { offset: 0xBD0A, size: 0x8, addend: 0x0, symName: __ZNSt3__19allocatorINS_11__tree_nodeINS_12__value_typeINS_12basic_stringIcNS_11char_traitsIcEENS0_IcEEEE11SymbolEntryEEPvEEE9constructB8ne180100IKS7_JRSE_EEEvPT_DpOT0_, symObjAddr: 0x56C8, symBinAddr: 0x10000924C, symSize: 0x30 }
  - { offset: 0xBD5E, size: 0x8, addend: 0x0, symName: __ZNKSt3__117__compressed_pairIPNS_11__tree_nodeINS_12__value_typeINS_12basic_stringIcNS_11char_traitsIcEENS_9allocatorIcEEEE11SymbolEntryEEPvEENS_21__map_node_destructorINS6_ISC_EEEEE5firstB8ne180100Ev, symObjAddr: 0x56F8, symBinAddr: 0x10000927C, symSize: 0x24 }
  - { offset: 0xBD82, size: 0x8, addend: 0x0, symName: __ZNKSt3__122__compressed_pair_elemIPNS_11__tree_nodeINS_12__value_typeINS_12basic_stringIcNS_11char_traitsIcEENS_9allocatorIcEEEE11SymbolEntryEEPvEELi0ELb0EE5__getB8ne180100Ev, symObjAddr: 0x571C, symBinAddr: 0x1000092A0, symSize: 0x14 }
  - { offset: 0xBDA6, size: 0x8, addend: 0x0, symName: __ZNSt3__117__compressed_pairIPNS_11__tree_nodeINS_12__value_typeINS_12basic_stringIcNS_11char_traitsIcEENS_9allocatorIcEEEE11SymbolEntryEEPvEENS_21__map_node_destructorINS6_ISC_EEEEE6secondB8ne180100Ev, symObjAddr: 0x5730, symBinAddr: 0x1000092B4, symSize: 0x28 }
  - { offset: 0xBDCA, size: 0x8, addend: 0x0, symName: __ZNSt3__122__compressed_pair_elemINS_21__map_node_destructorINS_9allocatorINS_11__tree_nodeINS_12__value_typeINS_12basic_stringIcNS_11char_traitsIcEENS2_IcEEEE11SymbolEntryEEPvEEEEEELi1ELb0EE5__getB8ne180100Ev, symObjAddr: 0x5758, symBinAddr: 0x1000092DC, symSize: 0x14 }
  - { offset: 0xBDEE, size: 0x8, addend: 0x0, symName: __ZNSt3__19allocatorINS_11__tree_nodeINS_12__value_typeINS_12basic_stringIcNS_11char_traitsIcEENS0_IcEEEE11SymbolEntryEEPvEEE9constructB8ne180100IS8_JEEEvPT_DpOT0_, symObjAddr: 0x576C, symBinAddr: 0x1000092F0, symSize: 0x20 }
  - { offset: 0xBE2E, size: 0x8, addend: 0x0, symName: __ZNSt3__16__treeINS_12__value_typeINS_12basic_stringIcNS_11char_traitsIcEENS_9allocatorIcEEEE11SymbolEntryEENS_19__map_value_compareIS7_S9_NS_4lessIS7_EELb1EEENS5_IS9_EEE4sizeB8ne180100Ev, symObjAddr: 0x5ACC, symBinAddr: 0x100009650, symSize: 0x28 }
  - { offset: 0xBE52, size: 0x8, addend: 0x0, symName: __ZNKSt3__116__tree_node_baseIPvE15__parent_unsafeB8ne180100Ev, symObjAddr: 0x5AF4, symBinAddr: 0x100009678, symSize: 0x18 }
  - { offset: 0xBE76, size: 0x8, addend: 0x0, symName: __ZNSt3__116__tree_node_baseIPvE12__set_parentB8ne180100EPS2_, symObjAddr: 0x5CF0, symBinAddr: 0x100009874, symSize: 0x20 }
  - { offset: 0xBEA9, size: 0x8, addend: 0x0, symName: __ZNSt3__117__compressed_pairImNS_19__map_value_compareINS_12basic_stringIcNS_11char_traitsIcEENS_9allocatorIcEEEENS_12__value_typeIS7_11SymbolEntryEENS_4lessIS7_EELb1EEEE5firstB8ne180100Ev, symObjAddr: 0x5D10, symBinAddr: 0x100009894, symSize: 0x24 }
  - { offset: 0xBECD, size: 0x8, addend: 0x0, symName: __ZNSt3__122__compressed_pair_elemImLi0ELb0EE5__getB8ne180100Ev, symObjAddr: 0x5D34, symBinAddr: 0x1000098B8, symSize: 0x14 }
  - { offset: 0xBEF1, size: 0x8, addend: 0x0, symName: __ZNSt3__117__compressed_pairIPNS_11__tree_nodeINS_12__value_typeINS_12basic_stringIcNS_11char_traitsIcEENS_9allocatorIcEEEE11SymbolEntryEEPvEENS_21__map_node_destructorINS6_ISC_EEEEE5firstB8ne180100Ev, symObjAddr: 0x5D48, symBinAddr: 0x1000098CC, symSize: 0x24 }
  - { offset: 0xBF15, size: 0x8, addend: 0x0, symName: __ZNSt3__122__compressed_pair_elemIPNS_11__tree_nodeINS_12__value_typeINS_12basic_stringIcNS_11char_traitsIcEENS_9allocatorIcEEEE11SymbolEntryEEPvEELi0ELb0EE5__getB8ne180100Ev, symObjAddr: 0x5D6C, symBinAddr: 0x1000098F0, symSize: 0x14 }
  - { offset: 0xBF39, size: 0x8, addend: 0x0, symName: __ZNSt3__110unique_ptrINS_11__tree_nodeINS_12__value_typeINS_12basic_stringIcNS_11char_traitsIcEENS_9allocatorIcEEEE11SymbolEntryEEPvEENS_21__map_node_destructorINS6_ISC_EEEEED2B8ne180100Ev, symObjAddr: 0x5D80, symBinAddr: 0x100009904, symSize: 0x30 }
  - { offset: 0xBF61, size: 0x8, addend: 0x0, symName: __ZNSt3__110unique_ptrINS_11__tree_nodeINS_12__value_typeINS_12basic_stringIcNS_11char_traitsIcEENS_9allocatorIcEEEE11SymbolEntryEEPvEENS_21__map_node_destructorINS6_ISC_EEEEE5resetB8ne180100EPSC_, symObjAddr: 0x5DB0, symBinAddr: 0x100009934, symSize: 0x78 }
  - { offset: 0xBFA3, size: 0x8, addend: 0x0, symName: __ZNSt3__121__map_node_destructorINS_9allocatorINS_11__tree_nodeINS_12__value_typeINS_12basic_stringIcNS_11char_traitsIcEENS1_IcEEEE11SymbolEntryEEPvEEEEEclB8ne180100EPSC_, symObjAddr: 0x5E28, symBinAddr: 0x1000099AC, symSize: 0xE4 }
  - { offset: 0xBFD6, size: 0x8, addend: 0x0, symName: __ZNSt3__116allocator_traitsINS_9allocatorINS_11__tree_nodeINS_12__value_typeINS_12basic_stringIcNS_11char_traitsIcEENS1_IcEEEE11SymbolEntryEEPvEEEEE7destroyB8ne180100IS9_vvEEvRSD_PT_, symObjAddr: 0x5F0C, symBinAddr: 0x100009A90, symSize: 0x28 }
  - { offset: 0xC00F, size: 0x8, addend: 0x0, symName: __ZNSt3__116allocator_traitsINS_9allocatorINS_11__tree_nodeINS_12__value_typeINS_12basic_stringIcNS_11char_traitsIcEENS1_IcEEEE11SymbolEntryEEPvEEEEE7destroyB8ne180100IKS8_vvEEvRSD_PT_, symObjAddr: 0x5F34, symBinAddr: 0x100009AB8, symSize: 0x28 }
  - { offset: 0xC048, size: 0x8, addend: 0x0, symName: __ZNSt3__16__treeINS_12__value_typeINS_12basic_stringIcNS_11char_traitsIcEENS_9allocatorIcEEEE12_DATA_TYPES_EENS_19__map_value_compareIS7_S9_NS_4lessIS7_EELb1EEENS5_IS9_EEE12__find_equalIS7_EERPNS_16__tree_node_baseIPvEERPNS_15__tree_end_nodeISK_EERKT_, symObjAddr: 0x5F90, symBinAddr: 0x100009B14, symSize: 0x184 }
  - { offset: 0xC0B3, size: 0x8, addend: 0x0, symName: __ZNSt3__13mapINS_12basic_stringIcNS_11char_traitsIcEENS_9allocatorIcEEEE12_DATA_TYPES_NS_4lessIS6_EENS4_INS_4pairIKS6_S7_EEEEE25__construct_node_with_keyERSB_, symObjAddr: 0x6114, symBinAddr: 0x100009C98, symSize: 0x144 }
  - { offset: 0xC107, size: 0x8, addend: 0x0, symName: __ZNSt3__16__treeINS_12__value_typeINS_12basic_stringIcNS_11char_traitsIcEENS_9allocatorIcEEEE12_DATA_TYPES_EENS_19__map_value_compareIS7_S9_NS_4lessIS7_EELb1EEENS5_IS9_EEE16__insert_node_atEPNS_15__tree_end_nodeIPNS_16__tree_node_baseIPvEEEERSK_SK_, symObjAddr: 0x6258, symBinAddr: 0x100009DDC, symSize: 0xCC }
  - { offset: 0xC15A, size: 0x8, addend: 0x0, symName: __ZNKSt3__110unique_ptrINS_11__tree_nodeINS_12__value_typeINS_12basic_stringIcNS_11char_traitsIcEENS_9allocatorIcEEEE12_DATA_TYPES_EEPvEENS_21__map_node_destructorINS6_ISC_EEEEE3getB8ne180100Ev, symObjAddr: 0x6324, symBinAddr: 0x100009EA8, symSize: 0x28 }
  - { offset: 0xC17E, size: 0x8, addend: 0x0, symName: __ZNSt3__110unique_ptrINS_11__tree_nodeINS_12__value_typeINS_12basic_stringIcNS_11char_traitsIcEENS_9allocatorIcEEEE12_DATA_TYPES_EEPvEENS_21__map_node_destructorINS6_ISC_EEEEE7releaseB8ne180100Ev, symObjAddr: 0x634C, symBinAddr: 0x100009ED0, symSize: 0x44 }
  - { offset: 0xC1B1, size: 0x8, addend: 0x0, symName: __ZNSt3__110unique_ptrINS_11__tree_nodeINS_12__value_typeINS_12basic_stringIcNS_11char_traitsIcEENS_9allocatorIcEEEE12_DATA_TYPES_EEPvEENS_21__map_node_destructorINS6_ISC_EEEEED1B8ne180100Ev, symObjAddr: 0x6390, symBinAddr: 0x100009F14, symSize: 0x2C }
  - { offset: 0xC1D9, size: 0x8, addend: 0x0, symName: __ZNKSt3__16__treeINS_12__value_typeINS_12basic_stringIcNS_11char_traitsIcEENS_9allocatorIcEEEE12_DATA_TYPES_EENS_19__map_value_compareIS7_S9_NS_4lessIS7_EELb1EEENS5_IS9_EEE10__root_ptrB8ne180100Ev, symObjAddr: 0x63BC, symBinAddr: 0x100009F40, symSize: 0x24 }
  - { offset: 0xC1FD, size: 0x8, addend: 0x0, symName: __ZNSt3__16__treeINS_12__value_typeINS_12basic_stringIcNS_11char_traitsIcEENS_9allocatorIcEEEE12_DATA_TYPES_EENS_19__map_value_compareIS7_S9_NS_4lessIS7_EELb1EEENS5_IS9_EEE10value_compB8ne180100Ev, symObjAddr: 0x63E0, symBinAddr: 0x100009F64, symSize: 0x28 }
  - { offset: 0xC221, size: 0x8, addend: 0x0, symName: __ZNKSt3__119__map_value_compareINS_12basic_stringIcNS_11char_traitsIcEENS_9allocatorIcEEEENS_12__value_typeIS6_12_DATA_TYPES_EENS_4lessIS6_EELb1EEclB8ne180100ERKS6_RKS9_, symObjAddr: 0x6408, symBinAddr: 0x100009F8C, symSize: 0x50 }
  - { offset: 0xC263, size: 0x8, addend: 0x0, symName: __ZNKSt3__119__map_value_compareINS_12basic_stringIcNS_11char_traitsIcEENS_9allocatorIcEEEENS_12__value_typeIS6_12_DATA_TYPES_EENS_4lessIS6_EELb1EEclB8ne180100ERKS9_RKS6_, symObjAddr: 0x6458, symBinAddr: 0x100009FDC, symSize: 0x48 }
  - { offset: 0xC2A5, size: 0x8, addend: 0x0, symName: __ZNSt3__117__compressed_pairImNS_19__map_value_compareINS_12basic_stringIcNS_11char_traitsIcEENS_9allocatorIcEEEENS_12__value_typeIS7_12_DATA_TYPES_EENS_4lessIS7_EELb1EEEE6secondB8ne180100Ev, symObjAddr: 0x64A0, symBinAddr: 0x10000A024, symSize: 0x24 }
  - { offset: 0xC2C9, size: 0x8, addend: 0x0, symName: __ZNSt3__122__compressed_pair_elemINS_19__map_value_compareINS_12basic_stringIcNS_11char_traitsIcEENS_9allocatorIcEEEENS_12__value_typeIS7_12_DATA_TYPES_EENS_4lessIS7_EELb1EEELi1ELb1EE5__getB8ne180100Ev, symObjAddr: 0x64C4, symBinAddr: 0x10000A048, symSize: 0x14 }
  - { offset: 0xC2ED, size: 0x8, addend: 0x0, symName: __ZNKSt3__112__value_typeINS_12basic_stringIcNS_11char_traitsIcEENS_9allocatorIcEEEE12_DATA_TYPES_E11__get_valueB8ne180100Ev, symObjAddr: 0x64D8, symBinAddr: 0x10000A05C, symSize: 0x14 }
  - { offset: 0xC311, size: 0x8, addend: 0x0, symName: __ZNSt3__116allocator_traitsINS_9allocatorINS_11__tree_nodeINS_12__value_typeINS_12basic_stringIcNS_11char_traitsIcEENS1_IcEEEE12_DATA_TYPES_EEPvEEEEE8allocateB8ne180100ERSD_m, symObjAddr: 0x64EC, symBinAddr: 0x10000A070, symSize: 0x2C }
  - { offset: 0xC343, size: 0x8, addend: 0x0, symName: __ZNSt3__121__map_node_destructorINS_9allocatorINS_11__tree_nodeINS_12__value_typeINS_12basic_stringIcNS_11char_traitsIcEENS1_IcEEEE12_DATA_TYPES_EEPvEEEEEC1B8ne180100ERSD_, symObjAddr: 0x6518, symBinAddr: 0x10000A09C, symSize: 0x34 }
  - { offset: 0xC37F, size: 0x8, addend: 0x0, symName: __ZNSt3__110unique_ptrINS_11__tree_nodeINS_12__value_typeINS_12basic_stringIcNS_11char_traitsIcEENS_9allocatorIcEEEE12_DATA_TYPES_EEPvEENS_21__map_node_destructorINS6_ISC_EEEEEC1B8ne180100ILb1EvEEPSC_NS_16__dependent_typeINS_27__unique_ptr_deleter_sfinaeISF_EEXT_EE20__good_rval_ref_typeE, symObjAddr: 0x654C, symBinAddr: 0x10000A0D0, symSize: 0x3C }
  - { offset: 0xC3CE, size: 0x8, addend: 0x0, symName: __ZNSt3__116allocator_traitsINS_9allocatorINS_11__tree_nodeINS_12__value_typeINS_12basic_stringIcNS_11char_traitsIcEENS1_IcEEEE12_DATA_TYPES_EEPvEEEEE9constructB8ne180100IKS8_JRSG_EvEEvRSD_PT_DpOT0_, symObjAddr: 0x6588, symBinAddr: 0x10000A10C, symSize: 0x34 }
  - { offset: 0xC424, size: 0x8, addend: 0x0, symName: __ZNKSt3__110unique_ptrINS_11__tree_nodeINS_12__value_typeINS_12basic_stringIcNS_11char_traitsIcEENS_9allocatorIcEEEE12_DATA_TYPES_EEPvEENS_21__map_node_destructorINS6_ISC_EEEEEptB8ne180100Ev, symObjAddr: 0x65BC, symBinAddr: 0x10000A140, symSize: 0x28 }
  - { offset: 0xC448, size: 0x8, addend: 0x0, symName: __ZNSt3__110unique_ptrINS_11__tree_nodeINS_12__value_typeINS_12basic_stringIcNS_11char_traitsIcEENS_9allocatorIcEEEE12_DATA_TYPES_EEPvEENS_21__map_node_destructorINS6_ISC_EEEEE11get_deleterB8ne180100Ev, symObjAddr: 0x65E4, symBinAddr: 0x10000A168, symSize: 0x24 }
  - { offset: 0xC471, size: 0x8, addend: 0x0, symName: __ZNSt3__116allocator_traitsINS_9allocatorINS_11__tree_nodeINS_12__value_typeINS_12basic_stringIcNS_11char_traitsIcEENS1_IcEEEE12_DATA_TYPES_EEPvEEEEE9constructB8ne180100IS9_JEvEEvRSD_PT_DpOT0_, symObjAddr: 0x6608, symBinAddr: 0x10000A18C, symSize: 0x2C }
  - { offset: 0xC4B2, size: 0x8, addend: 0x0, symName: __ZNSt3__19allocatorINS_11__tree_nodeINS_12__value_typeINS_12basic_stringIcNS_11char_traitsIcEENS0_IcEEEE12_DATA_TYPES_EEPvEEE8allocateB8ne180100Em, symObjAddr: 0x6634, symBinAddr: 0x10000A1B8, symSize: 0x84 }
  - { offset: 0xC4EE, size: 0x8, addend: 0x0, symName: __ZNSt3__116allocator_traitsINS_9allocatorINS_11__tree_nodeINS_12__value_typeINS_12basic_stringIcNS_11char_traitsIcEENS1_IcEEEE12_DATA_TYPES_EEPvEEEEE8max_sizeB8ne180100ISD_vEEmRKSD_, symObjAddr: 0x66B8, symBinAddr: 0x10000A23C, symSize: 0x24 }
  - { offset: 0xC51B, size: 0x8, addend: 0x0, symName: __ZNKSt3__19allocatorINS_11__tree_nodeINS_12__value_typeINS_12basic_stringIcNS_11char_traitsIcEENS0_IcEEEE12_DATA_TYPES_EEPvEEE8max_sizeB8ne180100Ev, symObjAddr: 0x66DC, symBinAddr: 0x10000A260, symSize: 0x14 }
  - { offset: 0xC53F, size: 0x8, addend: 0x0, symName: __ZNSt3__121__map_node_destructorINS_9allocatorINS_11__tree_nodeINS_12__value_typeINS_12basic_stringIcNS_11char_traitsIcEENS1_IcEEEE12_DATA_TYPES_EEPvEEEEEC2B8ne180100ERSD_, symObjAddr: 0x66F0, symBinAddr: 0x10000A274, symSize: 0x28 }
  - { offset: 0xC576, size: 0x8, addend: 0x0, symName: __ZNSt3__110unique_ptrINS_11__tree_nodeINS_12__value_typeINS_12basic_stringIcNS_11char_traitsIcEENS_9allocatorIcEEEE12_DATA_TYPES_EEPvEENS_21__map_node_destructorINS6_ISC_EEEEEC2B8ne180100ILb1EvEEPSC_NS_16__dependent_typeINS_27__unique_ptr_deleter_sfinaeISF_EEXT_EE20__good_rval_ref_typeE, symObjAddr: 0x6718, symBinAddr: 0x10000A29C, symSize: 0x5C }
  - { offset: 0xC5C5, size: 0x8, addend: 0x0, symName: __ZNSt3__117__compressed_pairIPNS_11__tree_nodeINS_12__value_typeINS_12basic_stringIcNS_11char_traitsIcEENS_9allocatorIcEEEE12_DATA_TYPES_EEPvEENS_21__map_node_destructorINS6_ISC_EEEEEC1B8ne180100IRSD_SG_EEOT_OT0_, symObjAddr: 0x6774, symBinAddr: 0x10000A2F8, symSize: 0x3C }
  - { offset: 0xC61B, size: 0x8, addend: 0x0, symName: __ZNSt3__117__compressed_pairIPNS_11__tree_nodeINS_12__value_typeINS_12basic_stringIcNS_11char_traitsIcEENS_9allocatorIcEEEE12_DATA_TYPES_EEPvEENS_21__map_node_destructorINS6_ISC_EEEEEC2B8ne180100IRSD_SG_EEOT_OT0_, symObjAddr: 0x67B0, symBinAddr: 0x10000A334, symSize: 0x48 }
  - { offset: 0xC671, size: 0x8, addend: 0x0, symName: __ZNSt3__122__compressed_pair_elemIPNS_11__tree_nodeINS_12__value_typeINS_12basic_stringIcNS_11char_traitsIcEENS_9allocatorIcEEEE12_DATA_TYPES_EEPvEELi0ELb0EEC2B8ne180100IRSD_vEEOT_, symObjAddr: 0x67F8, symBinAddr: 0x10000A37C, symSize: 0x24 }
  - { offset: 0xC6B1, size: 0x8, addend: 0x0, symName: __ZNSt3__122__compressed_pair_elemINS_21__map_node_destructorINS_9allocatorINS_11__tree_nodeINS_12__value_typeINS_12basic_stringIcNS_11char_traitsIcEENS2_IcEEEE12_DATA_TYPES_EEPvEEEEEELi1ELb0EEC2B8ne180100ISF_vEEOT_, symObjAddr: 0x681C, symBinAddr: 0x10000A3A0, symSize: 0x24 }
  - { offset: 0xC6F1, size: 0x8, addend: 0x0, symName: __ZNSt3__19allocatorINS_11__tree_nodeINS_12__value_typeINS_12basic_stringIcNS_11char_traitsIcEENS0_IcEEEE12_DATA_TYPES_EEPvEEE9constructB8ne180100IKS7_JRSE_EEEvPT_DpOT0_, symObjAddr: 0x6840, symBinAddr: 0x10000A3C4, symSize: 0x30 }
  - { offset: 0xC745, size: 0x8, addend: 0x0, symName: __ZNKSt3__117__compressed_pairIPNS_11__tree_nodeINS_12__value_typeINS_12basic_stringIcNS_11char_traitsIcEENS_9allocatorIcEEEE12_DATA_TYPES_EEPvEENS_21__map_node_destructorINS6_ISC_EEEEE5firstB8ne180100Ev, symObjAddr: 0x6870, symBinAddr: 0x10000A3F4, symSize: 0x24 }
  - { offset: 0xC769, size: 0x8, addend: 0x0, symName: __ZNKSt3__122__compressed_pair_elemIPNS_11__tree_nodeINS_12__value_typeINS_12basic_stringIcNS_11char_traitsIcEENS_9allocatorIcEEEE12_DATA_TYPES_EEPvEELi0ELb0EE5__getB8ne180100Ev, symObjAddr: 0x6894, symBinAddr: 0x10000A418, symSize: 0x14 }
  - { offset: 0xC78D, size: 0x8, addend: 0x0, symName: __ZNSt3__117__compressed_pairIPNS_11__tree_nodeINS_12__value_typeINS_12basic_stringIcNS_11char_traitsIcEENS_9allocatorIcEEEE12_DATA_TYPES_EEPvEENS_21__map_node_destructorINS6_ISC_EEEEE6secondB8ne180100Ev, symObjAddr: 0x68A8, symBinAddr: 0x10000A42C, symSize: 0x28 }
  - { offset: 0xC7B1, size: 0x8, addend: 0x0, symName: __ZNSt3__122__compressed_pair_elemINS_21__map_node_destructorINS_9allocatorINS_11__tree_nodeINS_12__value_typeINS_12basic_stringIcNS_11char_traitsIcEENS2_IcEEEE12_DATA_TYPES_EEPvEEEEEELi1ELb0EE5__getB8ne180100Ev, symObjAddr: 0x68D0, symBinAddr: 0x10000A454, symSize: 0x14 }
  - { offset: 0xC7D5, size: 0x8, addend: 0x0, symName: __ZNSt3__19allocatorINS_11__tree_nodeINS_12__value_typeINS_12basic_stringIcNS_11char_traitsIcEENS0_IcEEEE12_DATA_TYPES_EEPvEEE9constructB8ne180100IS8_JEEEvPT_DpOT0_, symObjAddr: 0x68E4, symBinAddr: 0x10000A468, symSize: 0x1C }
  - { offset: 0xC815, size: 0x8, addend: 0x0, symName: __ZNSt3__16__treeINS_12__value_typeINS_12basic_stringIcNS_11char_traitsIcEENS_9allocatorIcEEEE12_DATA_TYPES_EENS_19__map_value_compareIS7_S9_NS_4lessIS7_EELb1EEENS5_IS9_EEE4sizeB8ne180100Ev, symObjAddr: 0x6900, symBinAddr: 0x10000A484, symSize: 0x28 }
  - { offset: 0xC839, size: 0x8, addend: 0x0, symName: __ZNSt3__117__compressed_pairImNS_19__map_value_compareINS_12basic_stringIcNS_11char_traitsIcEENS_9allocatorIcEEEENS_12__value_typeIS7_12_DATA_TYPES_EENS_4lessIS7_EELb1EEEE5firstB8ne180100Ev, symObjAddr: 0x6928, symBinAddr: 0x10000A4AC, symSize: 0x24 }
  - { offset: 0xC85D, size: 0x8, addend: 0x0, symName: __ZNSt3__117__compressed_pairIPNS_11__tree_nodeINS_12__value_typeINS_12basic_stringIcNS_11char_traitsIcEENS_9allocatorIcEEEE12_DATA_TYPES_EEPvEENS_21__map_node_destructorINS6_ISC_EEEEE5firstB8ne180100Ev, symObjAddr: 0x694C, symBinAddr: 0x10000A4D0, symSize: 0x24 }
  - { offset: 0xC881, size: 0x8, addend: 0x0, symName: __ZNSt3__122__compressed_pair_elemIPNS_11__tree_nodeINS_12__value_typeINS_12basic_stringIcNS_11char_traitsIcEENS_9allocatorIcEEEE12_DATA_TYPES_EEPvEELi0ELb0EE5__getB8ne180100Ev, symObjAddr: 0x6970, symBinAddr: 0x10000A4F4, symSize: 0x14 }
  - { offset: 0xC8A5, size: 0x8, addend: 0x0, symName: __ZNSt3__110unique_ptrINS_11__tree_nodeINS_12__value_typeINS_12basic_stringIcNS_11char_traitsIcEENS_9allocatorIcEEEE12_DATA_TYPES_EEPvEENS_21__map_node_destructorINS6_ISC_EEEEED2B8ne180100Ev, symObjAddr: 0x6984, symBinAddr: 0x10000A508, symSize: 0x30 }
  - { offset: 0xC8CD, size: 0x8, addend: 0x0, symName: __ZNSt3__110unique_ptrINS_11__tree_nodeINS_12__value_typeINS_12basic_stringIcNS_11char_traitsIcEENS_9allocatorIcEEEE12_DATA_TYPES_EEPvEENS_21__map_node_destructorINS6_ISC_EEEEE5resetB8ne180100EPSC_, symObjAddr: 0x69B4, symBinAddr: 0x10000A538, symSize: 0x78 }
  - { offset: 0xC90F, size: 0x8, addend: 0x0, symName: __ZNSt3__121__map_node_destructorINS_9allocatorINS_11__tree_nodeINS_12__value_typeINS_12basic_stringIcNS_11char_traitsIcEENS1_IcEEEE12_DATA_TYPES_EEPvEEEEEclB8ne180100EPSC_, symObjAddr: 0x6A2C, symBinAddr: 0x10000A5B0, symSize: 0xE4 }
  - { offset: 0xC942, size: 0x8, addend: 0x0, symName: __ZNSt3__116allocator_traitsINS_9allocatorINS_11__tree_nodeINS_12__value_typeINS_12basic_stringIcNS_11char_traitsIcEENS1_IcEEEE12_DATA_TYPES_EEPvEEEEE7destroyB8ne180100IS9_vvEEvRSD_PT_, symObjAddr: 0x6B10, symBinAddr: 0x10000A694, symSize: 0x28 }
  - { offset: 0xC97B, size: 0x8, addend: 0x0, symName: __ZNSt3__116allocator_traitsINS_9allocatorINS_11__tree_nodeINS_12__value_typeINS_12basic_stringIcNS_11char_traitsIcEENS1_IcEEEE12_DATA_TYPES_EEPvEEEEE7destroyB8ne180100IKS8_vvEEvRSD_PT_, symObjAddr: 0x6B38, symBinAddr: 0x10000A6BC, symSize: 0x28 }
...
